
AVRASM ver. 2.2.7  C:\Users\agagu\Documents\Atmel Studio\7.0\GPSDO\Gpsdo YT Counter\main.asm Thu Oct 15 19:35:26 2020

[builtin](2): Including file 'C:/Program Files (x86)\Atmel\Studio\7.0\Packs\atmel\ATmega_DFP\1.1.130\avrasm\inc\m328pdef.inc'
C:\Users\agagu\Documents\Atmel Studio\7.0\GPSDO\Gpsdo YT Counter\main.asm(3): Including file 'C:\Users\agagu\Documents\Atmel Studio\7.0\GPSDO\Gpsdo YT Counter\int_atmega328p.inc'
C:\Users\agagu\Documents\Atmel Studio\7.0\GPSDO\Gpsdo YT Counter\main.asm(48): Including file 'C:/Program Files (x86)\Atmel\Studio\7.0\Packs\atmel\ATmega_DFP\1.1.130\avrasm\inc\m328pdef.inc'
C:\Users\agagu\Documents\Atmel Studio\7.0\GPSDO\Gpsdo YT Counter\main.asm(49): Including file 'C:\Users\agagu\Documents\Atmel Studio\7.0\GPSDO\Gpsdo YT Counter\macros.inc'
C:\Users\agagu\Documents\Atmel Studio\7.0\GPSDO\Gpsdo YT Counter\main.asm(50): Including file 'C:\Users\agagu\Documents\Atmel Studio\7.0\GPSDO\Gpsdo YT Counter\afficheur.asm'
C:\Users\agagu\Documents\Atmel Studio\7.0\GPSDO\Gpsdo YT Counter\main.asm(51): Including file 'C:\Users\agagu\Documents\Atmel Studio\7.0\GPSDO\Gpsdo YT Counter\math.inc'
C:\Users\agagu\Documents\Atmel Studio\7.0\GPSDO\Gpsdo YT Counter\main.asm(52): Including file 'C:\Users\agagu\Documents\Atmel Studio\7.0\GPSDO\Gpsdo YT Counter\eeprom.asm'
C:\Users\agagu\Documents\Atmel Studio\7.0\GPSDO\Gpsdo YT Counter\main.asm(53): Including file 'C:\Users\agagu\Documents\Atmel Studio\7.0\GPSDO\Gpsdo YT Counter\serial.asm'
C:\Users\agagu\Documents\Atmel Studio\7.0\GPSDO\Gpsdo YT Counter\main.asm(645): Including file 'C:\Users\agagu\Documents\Atmel Studio\7.0\GPSDO\Gpsdo YT Counter\NopLoop.asm'
[builtin](2): Including file 'C:/Program Files (x86)\Atmel\Studio\7.0\Packs\atmel\ATmega_DFP\1.1.130\avrasm\inc\m328pdef.inc'
C:\Users\agagu\Documents\Atmel Studio\7.0\GPSDO\Gpsdo YT Counter\main.asm(3): Including file 'C:\Users\agagu\Documents\Atmel Studio\7.0\GPSDO\Gpsdo YT Counter\int_atmega328p.inc'
C:\Users\agagu\Documents\Atmel Studio\7.0\GPSDO\Gpsdo YT Counter\main.asm(48): Including file 'C:/Program Files (x86)\Atmel\Studio\7.0\Packs\atmel\ATmega_DFP\1.1.130\avrasm\inc\m328pdef.inc'
C:\Users\agagu\Documents\Atmel Studio\7.0\GPSDO\Gpsdo YT Counter\main.asm(49): Including file 'C:\Users\agagu\Documents\Atmel Studio\7.0\GPSDO\Gpsdo YT Counter\macros.inc'
C:\Users\agagu\Documents\Atmel Studio\7.0\GPSDO\Gpsdo YT Counter\main.asm(50): Including file 'C:\Users\agagu\Documents\Atmel Studio\7.0\GPSDO\Gpsdo YT Counter\afficheur.asm'
C:\Users\agagu\Documents\Atmel Studio\7.0\GPSDO\Gpsdo YT Counter\main.asm(51): Including file 'C:\Users\agagu\Documents\Atmel Studio\7.0\GPSDO\Gpsdo YT Counter\math.inc'
C:\Users\agagu\Documents\Atmel Studio\7.0\GPSDO\Gpsdo YT Counter\main.asm(52): Including file 'C:\Users\agagu\Documents\Atmel Studio\7.0\GPSDO\Gpsdo YT Counter\eeprom.asm'
C:\Users\agagu\Documents\Atmel Studio\7.0\GPSDO\Gpsdo YT Counter\main.asm(53): Including file 'C:\Users\agagu\Documents\Atmel Studio\7.0\GPSDO\Gpsdo YT Counter\serial.asm'
C:\Users\agagu\Documents\Atmel Studio\7.0\GPSDO\Gpsdo YT Counter\main.asm(645): Including file 'C:\Users\agagu\Documents\Atmel Studio\7.0\GPSDO\Gpsdo YT Counter\NopLoop.asm'
                                 
                                 ;Counter YT
                                 
                                 ;***** Created: 2011-02-09 12:03 ******* Source: ATmega328P.xml **********
                                 ;*************************************************************************
                                 ;* A P P L I C A T I O N   N O T E   F O R   T H E   A V R   F A M I L Y
                                 ;* 
                                 ;* Number            : AVR000
                                 ;* File Name         : "m328Pdef.inc"
                                 ;* Title             : Register/Bit Definitions for the ATmega328P
                                 ;* Date              : 2011-02-09
                                 ;* Version           : 2.35
                                 ;* Support E-mail    : avr@atmel.com
                                 ;* Target MCU        : ATmega328P
                                 ;* 
                                 ;* DESCRIPTION
                                 ;* When including this file in the assembly program file, all I/O register 
                                 ;* names and I/O register bit names appearing in the data book can be used.
                                 ;* In addition, the six registers forming the three data pointers X, Y and 
                                 ;* Z have been assigned names XL - ZH. Highest RAM address for Internal 
                                 ;* SRAM is also defined 
                                 ;* 
                                 ;* The Register names are represented by their hexadecimal address.
                                 ;* 
                                 ;* The Register Bit names are represented by their bit number (0-7).
                                 ;* 
                                 ;* Please observe the difference in using the bit names with instructions
                                 ;* such as "sbr"/"cbr" (set/clear bit in register) and "sbrs"/"sbrc"
                                 ;* (skip if bit in register set/cleared). The following example illustrates
                                 ;* this:
                                 ;* 
                                 ;* in    r16,PORTB             ;read PORTB latch
                                 ;* sbr   r16,(1<<PB6)+(1<<PB5) ;set PB6 and PB5 (use masks, not bit#)
                                 ;* out   PORTB,r16             ;output to PORTB
                                 ;* 
                                 ;* in    r16,TIFR              ;read the Timer Interrupt Flag Register
                                 ;* sbrc  r16,TOV0              ;test the overflow flag (use bit#)
                                 ;* rjmp  TOV0_is_set           ;jump if set
                                 ;* ...                         ;otherwise do something else
                                 ;*************************************************************************
                                 
                                 #ifndef _M328PDEF_INC_
                                 #define _M328PDEF_INC_
                                 
                                 
                                 #pragma partinc 0
                                 
                                 ; ***** SPECIFY DEVICE ***************************************************
                                 .device ATmega328P
                                 #pragma AVRPART ADMIN PART_NAME ATmega328P
                                 .equ	SIGNATURE_000	= 0x1e
                                 .equ	SIGNATURE_001	= 0x95
                                 .equ	SIGNATURE_002	= 0x0f
                                 
                                 #pragma AVRPART CORE CORE_VERSION V2E
                                 
                                 
                                 ; ***** I/O REGISTER DEFINITIONS *****************************************
                                 ; NOTE:
                                 ; Definitions marked "MEMORY MAPPED"are extended I/O ports
                                 ; and cannot be used with IN/OUT instructions
                                 .equ	UDR0	= 0xc6	; MEMORY MAPPED
                                 .equ	UBRR0L	= 0xc4	; MEMORY MAPPED
                                 .equ	UBRR0H	= 0xc5	; MEMORY MAPPED
                                 .equ	UCSR0C	= 0xc2	; MEMORY MAPPED
                                 .equ	UCSR0B	= 0xc1	; MEMORY MAPPED
                                 .equ	UCSR0A	= 0xc0	; MEMORY MAPPED
                                 .equ	TWAMR	= 0xbd	; MEMORY MAPPED
                                 .equ	TWCR	= 0xbc	; MEMORY MAPPED
                                 .equ	TWDR	= 0xbb	; MEMORY MAPPED
                                 .equ	TWAR	= 0xba	; MEMORY MAPPED
                                 .equ	TWSR	= 0xb9	; MEMORY MAPPED
                                 .equ	TWBR	= 0xb8	; MEMORY MAPPED
                                 .equ	ASSR	= 0xb6	; MEMORY MAPPED
                                 .equ	OCR2B	= 0xb4	; MEMORY MAPPED
                                 .equ	OCR2A	= 0xb3	; MEMORY MAPPED
                                 .equ	TCNT2	= 0xb2	; MEMORY MAPPED
                                 .equ	TCCR2B	= 0xb1	; MEMORY MAPPED
                                 .equ	TCCR2A	= 0xb0	; MEMORY MAPPED
                                 .equ	OCR1BL	= 0x8a	; MEMORY MAPPED
                                 .equ	OCR1BH	= 0x8b	; MEMORY MAPPED
                                 .equ	OCR1AL	= 0x88	; MEMORY MAPPED
                                 .equ	OCR1AH	= 0x89	; MEMORY MAPPED
                                 .equ	ICR1L	= 0x86	; MEMORY MAPPED
                                 .equ	ICR1H	= 0x87	; MEMORY MAPPED
                                 .equ	TCNT1L	= 0x84	; MEMORY MAPPED
                                 .equ	TCNT1H	= 0x85	; MEMORY MAPPED
                                 .equ	TCCR1C	= 0x82	; MEMORY MAPPED
                                 .equ	TCCR1B	= 0x81	; MEMORY MAPPED
                                 .equ	TCCR1A	= 0x80	; MEMORY MAPPED
                                 .equ	DIDR1	= 0x7f	; MEMORY MAPPED
                                 .equ	DIDR0	= 0x7e	; MEMORY MAPPED
                                 .equ	ADMUX	= 0x7c	; MEMORY MAPPED
                                 .equ	ADCSRB	= 0x7b	; MEMORY MAPPED
                                 .equ	ADCSRA	= 0x7a	; MEMORY MAPPED
                                 .equ	ADCH	= 0x79	; MEMORY MAPPED
                                 .equ	ADCL	= 0x78	; MEMORY MAPPED
                                 .equ	TIMSK2	= 0x70	; MEMORY MAPPED
                                 .equ	TIMSK1	= 0x6f	; MEMORY MAPPED
                                 .equ	TIMSK0	= 0x6e	; MEMORY MAPPED
                                 .equ	PCMSK1	= 0x6c	; MEMORY MAPPED
                                 .equ	PCMSK2	= 0x6d	; MEMORY MAPPED
                                 .equ	PCMSK0	= 0x6b	; MEMORY MAPPED
                                 .equ	EICRA	= 0x69	; MEMORY MAPPED
                                 .equ	PCICR	= 0x68	; MEMORY MAPPED
                                 .equ	OSCCAL	= 0x66	; MEMORY MAPPED
                                 .equ	PRR	= 0x64	; MEMORY MAPPED
                                 .equ	CLKPR	= 0x61	; MEMORY MAPPED
                                 .equ	WDTCSR	= 0x60	; MEMORY MAPPED
                                 .equ	SREG	= 0x3f
                                 .equ	SPL	= 0x3d
                                 .equ	SPH	= 0x3e
                                 .equ	SPMCSR	= 0x37
                                 .equ	MCUCR	= 0x35
                                 .equ	MCUSR	= 0x34
                                 .equ	SMCR	= 0x33
                                 .equ	ACSR	= 0x30
                                 .equ	SPDR	= 0x2e
                                 .equ	SPSR	= 0x2d
                                 .equ	SPCR	= 0x2c
                                 .equ	GPIOR2	= 0x2b
                                 .equ	GPIOR1	= 0x2a
                                 .equ	OCR0B	= 0x28
                                 .equ	OCR0A	= 0x27
                                 .equ	TCNT0	= 0x26
                                 .equ	TCCR0B	= 0x25
                                 .equ	TCCR0A	= 0x24
                                 .equ	GTCCR	= 0x23
                                 .equ	EEARH	= 0x22
                                 .equ	EEARL	= 0x21
                                 .equ	EEDR	= 0x20
                                 .equ	EECR	= 0x1f
                                 .equ	GPIOR0	= 0x1e
                                 .equ	EIMSK	= 0x1d
                                 .equ	EIFR	= 0x1c
                                 .equ	PCIFR	= 0x1b
                                 .equ	TIFR2	= 0x17
                                 .equ	TIFR1	= 0x16
                                 .equ	TIFR0	= 0x15
                                 .equ	PORTD	= 0x0b
                                 .equ	DDRD	= 0x0a
                                 .equ	PIND	= 0x09
                                 .equ	PORTC	= 0x08
                                 .equ	DDRC	= 0x07
                                 .equ	PINC	= 0x06
                                 .equ	PORTB	= 0x05
                                 .equ	DDRB	= 0x04
                                 .equ	PINB	= 0x03
                                 
                                 
                                 ; ***** BIT DEFINITIONS **************************************************
                                 
                                 ; ***** USART0 ***********************
                                 ; UDR0 - USART I/O Data Register
                                 .equ	UDR0_0	= 0	; USART I/O Data Register bit 0
                                 .equ	UDR0_1	= 1	; USART I/O Data Register bit 1
                                 .equ	UDR0_2	= 2	; USART I/O Data Register bit 2
                                 .equ	UDR0_3	= 3	; USART I/O Data Register bit 3
                                 .equ	UDR0_4	= 4	; USART I/O Data Register bit 4
                                 .equ	UDR0_5	= 5	; USART I/O Data Register bit 5
                                 .equ	UDR0_6	= 6	; USART I/O Data Register bit 6
                                 .equ	UDR0_7	= 7	; USART I/O Data Register bit 7
                                 
                                 ; UCSR0A - USART Control and Status Register A
                                 .equ	MPCM0	= 0	; Multi-processor Communication Mode
                                 .equ	U2X0	= 1	; Double the USART transmission speed
                                 .equ	UPE0	= 2	; Parity Error
                                 .equ	DOR0	= 3	; Data overRun
                                 .equ	FE0	= 4	; Framing Error
                                 .equ	UDRE0	= 5	; USART Data Register Empty
                                 .equ	TXC0	= 6	; USART Transmitt Complete
                                 .equ	RXC0	= 7	; USART Receive Complete
                                 
                                 ; UCSR0B - USART Control and Status Register B
                                 .equ	TXB80	= 0	; Transmit Data Bit 8
                                 .equ	RXB80	= 1	; Receive Data Bit 8
                                 .equ	UCSZ02	= 2	; Character Size
                                 .equ	TXEN0	= 3	; Transmitter Enable
                                 .equ	RXEN0	= 4	; Receiver Enable
                                 .equ	UDRIE0	= 5	; USART Data register Empty Interrupt Enable
                                 .equ	TXCIE0	= 6	; TX Complete Interrupt Enable
                                 .equ	RXCIE0	= 7	; RX Complete Interrupt Enable
                                 
                                 ; UCSR0C - USART Control and Status Register C
                                 .equ	UCPOL0	= 0	; Clock Polarity
                                 .equ	UCSZ00	= 1	; Character Size
                                 .equ	UCPHA0	= UCSZ00	; For compatibility
                                 .equ	UCSZ01	= 2	; Character Size
                                 .equ	UDORD0	= UCSZ01	; For compatibility
                                 .equ	USBS0	= 3	; Stop Bit Select
                                 .equ	UPM00	= 4	; Parity Mode Bit 0
                                 .equ	UPM01	= 5	; Parity Mode Bit 1
                                 .equ	UMSEL00	= 6	; USART Mode Select
                                 .equ	UMSEL0	= UMSEL00	; For compatibility
                                 .equ	UMSEL01	= 7	; USART Mode Select
                                 .equ	UMSEL1	= UMSEL01	; For compatibility
                                 
                                 ; UBRR0H - USART Baud Rate Register High Byte
                                 .equ	UBRR8	= 0	; USART Baud Rate Register bit 8
                                 .equ	UBRR9	= 1	; USART Baud Rate Register bit 9
                                 .equ	UBRR10	= 2	; USART Baud Rate Register bit 10
                                 .equ	UBRR11	= 3	; USART Baud Rate Register bit 11
                                 
                                 ; UBRR0L - USART Baud Rate Register Low Byte
                                 .equ	_UBRR0	= 0	; USART Baud Rate Register bit 0
                                 .equ	_UBRR1	= 1	; USART Baud Rate Register bit 1
                                 .equ	UBRR2	= 2	; USART Baud Rate Register bit 2
                                 .equ	UBRR3	= 3	; USART Baud Rate Register bit 3
                                 .equ	UBRR4	= 4	; USART Baud Rate Register bit 4
                                 .equ	UBRR5	= 5	; USART Baud Rate Register bit 5
                                 .equ	UBRR6	= 6	; USART Baud Rate Register bit 6
                                 .equ	UBRR7	= 7	; USART Baud Rate Register bit 7
                                 
                                 
                                 ; ***** TWI **************************
                                 ; TWAMR - TWI (Slave) Address Mask Register
                                 .equ	TWAM0	= 1	; 
                                 .equ	TWAMR0	= TWAM0	; For compatibility
                                 .equ	TWAM1	= 2	; 
                                 .equ	TWAMR1	= TWAM1	; For compatibility
                                 .equ	TWAM2	= 3	; 
                                 .equ	TWAMR2	= TWAM2	; For compatibility
                                 .equ	TWAM3	= 4	; 
                                 .equ	TWAMR3	= TWAM3	; For compatibility
                                 .equ	TWAM4	= 5	; 
                                 .equ	TWAMR4	= TWAM4	; For compatibility
                                 .equ	TWAM5	= 6	; 
                                 .equ	TWAMR5	= TWAM5	; For compatibility
                                 .equ	TWAM6	= 7	; 
                                 .equ	TWAMR6	= TWAM6	; For compatibility
                                 
                                 ; TWBR - TWI Bit Rate register
                                 .equ	TWBR0	= 0	; 
                                 .equ	TWBR1	= 1	; 
                                 .equ	TWBR2	= 2	; 
                                 .equ	TWBR3	= 3	; 
                                 .equ	TWBR4	= 4	; 
                                 .equ	TWBR5	= 5	; 
                                 .equ	TWBR6	= 6	; 
                                 .equ	TWBR7	= 7	; 
                                 
                                 ; TWCR - TWI Control Register
                                 .equ	TWIE	= 0	; TWI Interrupt Enable
                                 .equ	TWEN	= 2	; TWI Enable Bit
                                 .equ	TWWC	= 3	; TWI Write Collition Flag
                                 .equ	TWSTO	= 4	; TWI Stop Condition Bit
                                 .equ	TWSTA	= 5	; TWI Start Condition Bit
                                 .equ	TWEA	= 6	; TWI Enable Acknowledge Bit
                                 .equ	TWINT	= 7	; TWI Interrupt Flag
                                 
                                 ; TWSR - TWI Status Register
                                 .equ	TWPS0	= 0	; TWI Prescaler
                                 .equ	TWPS1	= 1	; TWI Prescaler
                                 .equ	TWS3	= 3	; TWI Status
                                 .equ	TWS4	= 4	; TWI Status
                                 .equ	TWS5	= 5	; TWI Status
                                 .equ	TWS6	= 6	; TWI Status
                                 .equ	TWS7	= 7	; TWI Status
                                 
                                 ; TWDR - TWI Data register
                                 .equ	TWD0	= 0	; TWI Data Register Bit 0
                                 .equ	TWD1	= 1	; TWI Data Register Bit 1
                                 .equ	TWD2	= 2	; TWI Data Register Bit 2
                                 .equ	TWD3	= 3	; TWI Data Register Bit 3
                                 .equ	TWD4	= 4	; TWI Data Register Bit 4
                                 .equ	TWD5	= 5	; TWI Data Register Bit 5
                                 .equ	TWD6	= 6	; TWI Data Register Bit 6
                                 .equ	TWD7	= 7	; TWI Data Register Bit 7
                                 
                                 ; TWAR - TWI (Slave) Address register
                                 .equ	TWGCE	= 0	; TWI General Call Recognition Enable Bit
                                 .equ	TWA0	= 1	; TWI (Slave) Address register Bit 0
                                 .equ	TWA1	= 2	; TWI (Slave) Address register Bit 1
                                 .equ	TWA2	= 3	; TWI (Slave) Address register Bit 2
                                 .equ	TWA3	= 4	; TWI (Slave) Address register Bit 3
                                 .equ	TWA4	= 5	; TWI (Slave) Address register Bit 4
                                 .equ	TWA5	= 6	; TWI (Slave) Address register Bit 5
                                 .equ	TWA6	= 7	; TWI (Slave) Address register Bit 6
                                 
                                 
                                 ; ***** TIMER_COUNTER_1 **************
                                 ; TIMSK1 - Timer/Counter Interrupt Mask Register
                                 .equ	TOIE1	= 0	; Timer/Counter1 Overflow Interrupt Enable
                                 .equ	OCIE1A	= 1	; Timer/Counter1 Output CompareA Match Interrupt Enable
                                 .equ	OCIE1B	= 2	; Timer/Counter1 Output CompareB Match Interrupt Enable
                                 .equ	ICIE1	= 5	; Timer/Counter1 Input Capture Interrupt Enable
                                 
                                 ; TIFR1 - Timer/Counter Interrupt Flag register
                                 .equ	TOV1	= 0	; Timer/Counter1 Overflow Flag
                                 .equ	OCF1A	= 1	; Output Compare Flag 1A
                                 .equ	OCF1B	= 2	; Output Compare Flag 1B
                                 .equ	ICF1	= 5	; Input Capture Flag 1
                                 
                                 ; TCCR1A - Timer/Counter1 Control Register A
                                 .equ	WGM10	= 0	; Waveform Generation Mode
                                 .equ	WGM11	= 1	; Waveform Generation Mode
                                 .equ	COM1B0	= 4	; Compare Output Mode 1B, bit 0
                                 .equ	COM1B1	= 5	; Compare Output Mode 1B, bit 1
                                 .equ	COM1A0	= 6	; Comparet Ouput Mode 1A, bit 0
                                 .equ	COM1A1	= 7	; Compare Output Mode 1A, bit 1
                                 
                                 ; TCCR1B - Timer/Counter1 Control Register B
                                 .equ	CS10	= 0	; Prescaler source of Timer/Counter 1
                                 .equ	CS11	= 1	; Prescaler source of Timer/Counter 1
                                 .equ	CS12	= 2	; Prescaler source of Timer/Counter 1
                                 .equ	WGM12	= 3	; Waveform Generation Mode
                                 .equ	WGM13	= 4	; Waveform Generation Mode
                                 .equ	ICES1	= 6	; Input Capture 1 Edge Select
                                 .equ	ICNC1	= 7	; Input Capture 1 Noise Canceler
                                 
                                 ; TCCR1C - Timer/Counter1 Control Register C
                                 .equ	FOC1B	= 6	; 
                                 .equ	FOC1A	= 7	; 
                                 
                                 ; GTCCR - General Timer/Counter Control Register
                                 .equ	PSRSYNC	= 0	; Prescaler Reset Timer/Counter1 and Timer/Counter0
                                 .equ	TSM	= 7	; Timer/Counter Synchronization Mode
                                 
                                 
                                 ; ***** TIMER_COUNTER_2 **************
                                 ; TIMSK2 - Timer/Counter Interrupt Mask register
                                 .equ	TOIE2	= 0	; Timer/Counter2 Overflow Interrupt Enable
                                 .equ	TOIE2A	= TOIE2	; For compatibility
                                 .equ	OCIE2A	= 1	; Timer/Counter2 Output Compare Match A Interrupt Enable
                                 .equ	OCIE2B	= 2	; Timer/Counter2 Output Compare Match B Interrupt Enable
                                 
                                 ; TIFR2 - Timer/Counter Interrupt Flag Register
                                 .equ	TOV2	= 0	; Timer/Counter2 Overflow Flag
                                 .equ	OCF2A	= 1	; Output Compare Flag 2A
                                 .equ	OCF2B	= 2	; Output Compare Flag 2B
                                 
                                 ; TCCR2A - Timer/Counter2 Control Register A
                                 .equ	WGM20	= 0	; Waveform Genration Mode
                                 .equ	WGM21	= 1	; Waveform Genration Mode
                                 .equ	COM2B0	= 4	; Compare Output Mode bit 0
                                 .equ	COM2B1	= 5	; Compare Output Mode bit 1
                                 .equ	COM2A0	= 6	; Compare Output Mode bit 1
                                 .equ	COM2A1	= 7	; Compare Output Mode bit 1
                                 
                                 ; TCCR2B - Timer/Counter2 Control Register B
                                 .equ	CS20	= 0	; Clock Select bit 0
                                 .equ	CS21	= 1	; Clock Select bit 1
                                 .equ	CS22	= 2	; Clock Select bit 2
                                 .equ	WGM22	= 3	; Waveform Generation Mode
                                 .equ	FOC2B	= 6	; Force Output Compare B
                                 .equ	FOC2A	= 7	; Force Output Compare A
                                 
                                 ; TCNT2 - Timer/Counter2
                                 .equ	TCNT2_0	= 0	; Timer/Counter 2 bit 0
                                 .equ	TCNT2_1	= 1	; Timer/Counter 2 bit 1
                                 .equ	TCNT2_2	= 2	; Timer/Counter 2 bit 2
                                 .equ	TCNT2_3	= 3	; Timer/Counter 2 bit 3
                                 .equ	TCNT2_4	= 4	; Timer/Counter 2 bit 4
                                 .equ	TCNT2_5	= 5	; Timer/Counter 2 bit 5
                                 .equ	TCNT2_6	= 6	; Timer/Counter 2 bit 6
                                 .equ	TCNT2_7	= 7	; Timer/Counter 2 bit 7
                                 
                                 ; OCR2A - Timer/Counter2 Output Compare Register A
                                 .equ	OCR2A_0	= 0	; Timer/Counter2 Output Compare Register Bit 0
                                 .equ	OCR2A_1	= 1	; Timer/Counter2 Output Compare Register Bit 1
                                 .equ	OCR2A_2	= 2	; Timer/Counter2 Output Compare Register Bit 2
                                 .equ	OCR2A_3	= 3	; Timer/Counter2 Output Compare Register Bit 3
                                 .equ	OCR2A_4	= 4	; Timer/Counter2 Output Compare Register Bit 4
                                 .equ	OCR2A_5	= 5	; Timer/Counter2 Output Compare Register Bit 5
                                 .equ	OCR2A_6	= 6	; Timer/Counter2 Output Compare Register Bit 6
                                 .equ	OCR2A_7	= 7	; Timer/Counter2 Output Compare Register Bit 7
                                 
                                 ; OCR2B - Timer/Counter2 Output Compare Register B
                                 .equ	OCR2B_0	= 0	; Timer/Counter2 Output Compare Register Bit 0
                                 .equ	OCR2B_1	= 1	; Timer/Counter2 Output Compare Register Bit 1
                                 .equ	OCR2B_2	= 2	; Timer/Counter2 Output Compare Register Bit 2
                                 .equ	OCR2B_3	= 3	; Timer/Counter2 Output Compare Register Bit 3
                                 .equ	OCR2B_4	= 4	; Timer/Counter2 Output Compare Register Bit 4
                                 .equ	OCR2B_5	= 5	; Timer/Counter2 Output Compare Register Bit 5
                                 .equ	OCR2B_6	= 6	; Timer/Counter2 Output Compare Register Bit 6
                                 .equ	OCR2B_7	= 7	; Timer/Counter2 Output Compare Register Bit 7
                                 
                                 ; ASSR - Asynchronous Status Register
                                 .equ	TCR2BUB	= 0	; Timer/Counter Control Register2 Update Busy
                                 .equ	TCR2AUB	= 1	; Timer/Counter Control Register2 Update Busy
                                 .equ	OCR2BUB	= 2	; Output Compare Register 2 Update Busy
                                 .equ	OCR2AUB	= 3	; Output Compare Register2 Update Busy
                                 .equ	TCN2UB	= 4	; Timer/Counter2 Update Busy
                                 .equ	AS2	= 5	; Asynchronous Timer/Counter2
                                 .equ	EXCLK	= 6	; Enable External Clock Input
                                 
                                 ; GTCCR - General Timer Counter Control register
                                 .equ	PSRASY	= 1	; Prescaler Reset Timer/Counter2
                                 .equ	PSR2	= PSRASY	; For compatibility
                                 ;.equ	TSM	= 7	; Timer/Counter Synchronization Mode
                                 
                                 
                                 ; ***** AD_CONVERTER *****************
                                 ; ADMUX - The ADC multiplexer Selection Register
                                 .equ	MUX0	= 0	; Analog Channel and Gain Selection Bits
                                 .equ	MUX1	= 1	; Analog Channel and Gain Selection Bits
                                 .equ	MUX2	= 2	; Analog Channel and Gain Selection Bits
                                 .equ	MUX3	= 3	; Analog Channel and Gain Selection Bits
                                 .equ	ADLAR	= 5	; Left Adjust Result
                                 .equ	REFS0	= 6	; Reference Selection Bit 0
                                 .equ	REFS1	= 7	; Reference Selection Bit 1
                                 
                                 ; ADCSRA - The ADC Control and Status register A
                                 .equ	ADPS0	= 0	; ADC  Prescaler Select Bits
                                 .equ	ADPS1	= 1	; ADC  Prescaler Select Bits
                                 .equ	ADPS2	= 2	; ADC  Prescaler Select Bits
                                 .equ	ADIE	= 3	; ADC Interrupt Enable
                                 .equ	ADIF	= 4	; ADC Interrupt Flag
                                 .equ	ADATE	= 5	; ADC  Auto Trigger Enable
                                 .equ	ADSC	= 6	; ADC Start Conversion
                                 .equ	ADEN	= 7	; ADC Enable
                                 
                                 ; ADCSRB - The ADC Control and Status register B
                                 .equ	ADTS0	= 0	; ADC Auto Trigger Source bit 0
                                 .equ	ADTS1	= 1	; ADC Auto Trigger Source bit 1
                                 .equ	ADTS2	= 2	; ADC Auto Trigger Source bit 2
                                 .equ	ACME	= 6	; 
                                 
                                 ; ADCH - ADC Data Register High Byte
                                 .equ	ADCH0	= 0	; ADC Data Register High Byte Bit 0
                                 .equ	ADCH1	= 1	; ADC Data Register High Byte Bit 1
                                 .equ	ADCH2	= 2	; ADC Data Register High Byte Bit 2
                                 .equ	ADCH3	= 3	; ADC Data Register High Byte Bit 3
                                 .equ	ADCH4	= 4	; ADC Data Register High Byte Bit 4
                                 .equ	ADCH5	= 5	; ADC Data Register High Byte Bit 5
                                 .equ	ADCH6	= 6	; ADC Data Register High Byte Bit 6
                                 .equ	ADCH7	= 7	; ADC Data Register High Byte Bit 7
                                 
                                 ; ADCL - ADC Data Register Low Byte
                                 .equ	ADCL0	= 0	; ADC Data Register Low Byte Bit 0
                                 .equ	ADCL1	= 1	; ADC Data Register Low Byte Bit 1
                                 .equ	ADCL2	= 2	; ADC Data Register Low Byte Bit 2
                                 .equ	ADCL3	= 3	; ADC Data Register Low Byte Bit 3
                                 .equ	ADCL4	= 4	; ADC Data Register Low Byte Bit 4
                                 .equ	ADCL5	= 5	; ADC Data Register Low Byte Bit 5
                                 .equ	ADCL6	= 6	; ADC Data Register Low Byte Bit 6
                                 .equ	ADCL7	= 7	; ADC Data Register Low Byte Bit 7
                                 
                                 ; DIDR0 - Digital Input Disable Register
                                 .equ	ADC0D	= 0	; 
                                 .equ	ADC1D	= 1	; 
                                 .equ	ADC2D	= 2	; 
                                 .equ	ADC3D	= 3	; 
                                 .equ	ADC4D	= 4	; 
                                 .equ	ADC5D	= 5	; 
                                 
                                 
                                 ; ***** ANALOG_COMPARATOR ************
                                 ; ACSR - Analog Comparator Control And Status Register
                                 .equ	ACIS0	= 0	; Analog Comparator Interrupt Mode Select bit 0
                                 .equ	ACIS1	= 1	; Analog Comparator Interrupt Mode Select bit 1
                                 .equ	ACIC	= 2	; Analog Comparator Input Capture Enable
                                 .equ	ACIE	= 3	; Analog Comparator Interrupt Enable
                                 .equ	ACI	= 4	; Analog Comparator Interrupt Flag
                                 .equ	ACO	= 5	; Analog Compare Output
                                 .equ	ACBG	= 6	; Analog Comparator Bandgap Select
                                 .equ	ACD	= 7	; Analog Comparator Disable
                                 
                                 ; DIDR1 - Digital Input Disable Register 1
                                 .equ	AIN0D	= 0	; AIN0 Digital Input Disable
                                 .equ	AIN1D	= 1	; AIN1 Digital Input Disable
                                 
                                 
                                 ; ***** PORTB ************************
                                 ; PORTB - Port B Data Register
                                 .equ	PORTB0	= 0	; Port B Data Register bit 0
                                 .equ	PB0	= 0	; For compatibility
                                 .equ	PORTB1	= 1	; Port B Data Register bit 1
                                 .equ	PB1	= 1	; For compatibility
                                 .equ	PORTB2	= 2	; Port B Data Register bit 2
                                 .equ	PB2	= 2	; For compatibility
                                 .equ	PORTB3	= 3	; Port B Data Register bit 3
                                 .equ	PB3	= 3	; For compatibility
                                 .equ	PORTB4	= 4	; Port B Data Register bit 4
                                 .equ	PB4	= 4	; For compatibility
                                 .equ	PORTB5	= 5	; Port B Data Register bit 5
                                 .equ	PB5	= 5	; For compatibility
                                 .equ	PORTB6	= 6	; Port B Data Register bit 6
                                 .equ	PB6	= 6	; For compatibility
                                 .equ	PORTB7	= 7	; Port B Data Register bit 7
                                 .equ	PB7	= 7	; For compatibility
                                 
                                 ; DDRB - Port B Data Direction Register
                                 .equ	DDB0	= 0	; Port B Data Direction Register bit 0
                                 .equ	DDB1	= 1	; Port B Data Direction Register bit 1
                                 .equ	DDB2	= 2	; Port B Data Direction Register bit 2
                                 .equ	DDB3	= 3	; Port B Data Direction Register bit 3
                                 .equ	DDB4	= 4	; Port B Data Direction Register bit 4
                                 .equ	DDB5	= 5	; Port B Data Direction Register bit 5
                                 .equ	DDB6	= 6	; Port B Data Direction Register bit 6
                                 .equ	DDB7	= 7	; Port B Data Direction Register bit 7
                                 
                                 ; PINB - Port B Input Pins
                                 .equ	PINB0	= 0	; Port B Input Pins bit 0
                                 .equ	PINB1	= 1	; Port B Input Pins bit 1
                                 .equ	PINB2	= 2	; Port B Input Pins bit 2
                                 .equ	PINB3	= 3	; Port B Input Pins bit 3
                                 .equ	PINB4	= 4	; Port B Input Pins bit 4
                                 .equ	PINB5	= 5	; Port B Input Pins bit 5
                                 .equ	PINB6	= 6	; Port B Input Pins bit 6
                                 .equ	PINB7	= 7	; Port B Input Pins bit 7
                                 
                                 
                                 ; ***** PORTC ************************
                                 ; PORTC - Port C Data Register
                                 .equ	PORTC0	= 0	; Port C Data Register bit 0
                                 .equ	PC0	= 0	; For compatibility
                                 .equ	PORTC1	= 1	; Port C Data Register bit 1
                                 .equ	PC1	= 1	; For compatibility
                                 .equ	PORTC2	= 2	; Port C Data Register bit 2
                                 .equ	PC2	= 2	; For compatibility
                                 .equ	PORTC3	= 3	; Port C Data Register bit 3
                                 .equ	PC3	= 3	; For compatibility
                                 .equ	PORTC4	= 4	; Port C Data Register bit 4
                                 .equ	PC4	= 4	; For compatibility
                                 .equ	PORTC5	= 5	; Port C Data Register bit 5
                                 .equ	PC5	= 5	; For compatibility
                                 .equ	PORTC6	= 6	; Port C Data Register bit 6
                                 .equ	PC6	= 6	; For compatibility
                                 
                                 ; DDRC - Port C Data Direction Register
                                 .equ	DDC0	= 0	; Port C Data Direction Register bit 0
                                 .equ	DDC1	= 1	; Port C Data Direction Register bit 1
                                 .equ	DDC2	= 2	; Port C Data Direction Register bit 2
                                 .equ	DDC3	= 3	; Port C Data Direction Register bit 3
                                 .equ	DDC4	= 4	; Port C Data Direction Register bit 4
                                 .equ	DDC5	= 5	; Port C Data Direction Register bit 5
                                 .equ	DDC6	= 6	; Port C Data Direction Register bit 6
                                 
                                 ; PINC - Port C Input Pins
                                 .equ	PINC0	= 0	; Port C Input Pins bit 0
                                 .equ	PINC1	= 1	; Port C Input Pins bit 1
                                 .equ	PINC2	= 2	; Port C Input Pins bit 2
                                 .equ	PINC3	= 3	; Port C Input Pins bit 3
                                 .equ	PINC4	= 4	; Port C Input Pins bit 4
                                 .equ	PINC5	= 5	; Port C Input Pins bit 5
                                 .equ	PINC6	= 6	; Port C Input Pins bit 6
                                 
                                 
                                 ; ***** PORTD ************************
                                 ; PORTD - Port D Data Register
                                 .equ	PORTD0	= 0	; Port D Data Register bit 0
                                 .equ	PD0	= 0	; For compatibility
                                 .equ	PORTD1	= 1	; Port D Data Register bit 1
                                 .equ	PD1	= 1	; For compatibility
                                 .equ	PORTD2	= 2	; Port D Data Register bit 2
                                 .equ	PD2	= 2	; For compatibility
                                 .equ	PORTD3	= 3	; Port D Data Register bit 3
                                 .equ	PD3	= 3	; For compatibility
                                 .equ	PORTD4	= 4	; Port D Data Register bit 4
                                 .equ	PD4	= 4	; For compatibility
                                 .equ	PORTD5	= 5	; Port D Data Register bit 5
                                 .equ	PD5	= 5	; For compatibility
                                 .equ	PORTD6	= 6	; Port D Data Register bit 6
                                 .equ	PD6	= 6	; For compatibility
                                 .equ	PORTD7	= 7	; Port D Data Register bit 7
                                 .equ	PD7	= 7	; For compatibility
                                 
                                 ; DDRD - Port D Data Direction Register
                                 .equ	DDD0	= 0	; Port D Data Direction Register bit 0
                                 .equ	DDD1	= 1	; Port D Data Direction Register bit 1
                                 .equ	DDD2	= 2	; Port D Data Direction Register bit 2
                                 .equ	DDD3	= 3	; Port D Data Direction Register bit 3
                                 .equ	DDD4	= 4	; Port D Data Direction Register bit 4
                                 .equ	DDD5	= 5	; Port D Data Direction Register bit 5
                                 .equ	DDD6	= 6	; Port D Data Direction Register bit 6
                                 .equ	DDD7	= 7	; Port D Data Direction Register bit 7
                                 
                                 ; PIND - Port D Input Pins
                                 .equ	PIND0	= 0	; Port D Input Pins bit 0
                                 .equ	PIND1	= 1	; Port D Input Pins bit 1
                                 .equ	PIND2	= 2	; Port D Input Pins bit 2
                                 .equ	PIND3	= 3	; Port D Input Pins bit 3
                                 .equ	PIND4	= 4	; Port D Input Pins bit 4
                                 .equ	PIND5	= 5	; Port D Input Pins bit 5
                                 .equ	PIND6	= 6	; Port D Input Pins bit 6
                                 .equ	PIND7	= 7	; Port D Input Pins bit 7
                                 
                                 
                                 ; ***** TIMER_COUNTER_0 **************
                                 ; TIMSK0 - Timer/Counter0 Interrupt Mask Register
                                 .equ	TOIE0	= 0	; Timer/Counter0 Overflow Interrupt Enable
                                 .equ	OCIE0A	= 1	; Timer/Counter0 Output Compare Match A Interrupt Enable
                                 .equ	OCIE0B	= 2	; Timer/Counter0 Output Compare Match B Interrupt Enable
                                 
                                 ; TIFR0 - Timer/Counter0 Interrupt Flag register
                                 .equ	TOV0	= 0	; Timer/Counter0 Overflow Flag
                                 .equ	OCF0A	= 1	; Timer/Counter0 Output Compare Flag 0A
                                 .equ	OCF0B	= 2	; Timer/Counter0 Output Compare Flag 0B
                                 
                                 ; TCCR0A - Timer/Counter  Control Register A
                                 .equ	WGM00	= 0	; Waveform Generation Mode
                                 .equ	WGM01	= 1	; Waveform Generation Mode
                                 .equ	COM0B0	= 4	; Compare Output Mode, Fast PWm
                                 .equ	COM0B1	= 5	; Compare Output Mode, Fast PWm
                                 .equ	COM0A0	= 6	; Compare Output Mode, Phase Correct PWM Mode
                                 .equ	COM0A1	= 7	; Compare Output Mode, Phase Correct PWM Mode
                                 
                                 ; TCCR0B - Timer/Counter Control Register B
                                 .equ	CS00	= 0	; Clock Select
                                 .equ	CS01	= 1	; Clock Select
                                 .equ	CS02	= 2	; Clock Select
                                 .equ	WGM02	= 3	; 
                                 .equ	FOC0B	= 6	; Force Output Compare B
                                 .equ	FOC0A	= 7	; Force Output Compare A
                                 
                                 ; TCNT0 - Timer/Counter0
                                 .equ	TCNT0_0	= 0	; 
                                 .equ	TCNT0_1	= 1	; 
                                 .equ	TCNT0_2	= 2	; 
                                 .equ	TCNT0_3	= 3	; 
                                 .equ	TCNT0_4	= 4	; 
                                 .equ	TCNT0_5	= 5	; 
                                 .equ	TCNT0_6	= 6	; 
                                 .equ	TCNT0_7	= 7	; 
                                 
                                 ; OCR0A - Timer/Counter0 Output Compare Register
                                 .equ	OCR0A_0	= 0	; 
                                 .equ	OCR0A_1	= 1	; 
                                 .equ	OCR0A_2	= 2	; 
                                 .equ	OCR0A_3	= 3	; 
                                 .equ	OCR0A_4	= 4	; 
                                 .equ	OCR0A_5	= 5	; 
                                 .equ	OCR0A_6	= 6	; 
                                 .equ	OCR0A_7	= 7	; 
                                 
                                 ; OCR0B - Timer/Counter0 Output Compare Register
                                 .equ	OCR0B_0	= 0	; 
                                 .equ	OCR0B_1	= 1	; 
                                 .equ	OCR0B_2	= 2	; 
                                 .equ	OCR0B_3	= 3	; 
                                 .equ	OCR0B_4	= 4	; 
                                 .equ	OCR0B_5	= 5	; 
                                 .equ	OCR0B_6	= 6	; 
                                 .equ	OCR0B_7	= 7	; 
                                 
                                 ; GTCCR - General Timer/Counter Control Register
                                 ;.equ	PSRSYNC	= 0	; Prescaler Reset Timer/Counter1 and Timer/Counter0
                                 .equ	PSR10	= PSRSYNC	; For compatibility
                                 ;.equ	TSM	= 7	; Timer/Counter Synchronization Mode
                                 
                                 
                                 ; ***** EXTERNAL_INTERRUPT ***********
                                 ; EICRA - External Interrupt Control Register
                                 .equ	ISC00	= 0	; External Interrupt Sense Control 0 Bit 0
                                 .equ	ISC01	= 1	; External Interrupt Sense Control 0 Bit 1
                                 .equ	ISC10	= 2	; External Interrupt Sense Control 1 Bit 0
                                 .equ	ISC11	= 3	; External Interrupt Sense Control 1 Bit 1
                                 
                                 ; EIMSK - External Interrupt Mask Register
                                 .equ	INT0	= 0	; External Interrupt Request 0 Enable
                                 .equ	INT1	= 1	; External Interrupt Request 1 Enable
                                 
                                 ; EIFR - External Interrupt Flag Register
                                 .equ	INTF0	= 0	; External Interrupt Flag 0
                                 .equ	INTF1	= 1	; External Interrupt Flag 1
                                 
                                 ; PCICR - Pin Change Interrupt Control Register
                                 .equ	PCIE0	= 0	; Pin Change Interrupt Enable 0
                                 .equ	PCIE1	= 1	; Pin Change Interrupt Enable 1
                                 .equ	PCIE2	= 2	; Pin Change Interrupt Enable 2
                                 
                                 ; PCMSK2 - Pin Change Mask Register 2
                                 .equ	PCINT16	= 0	; Pin Change Enable Mask 16
                                 .equ	PCINT17	= 1	; Pin Change Enable Mask 17
                                 .equ	PCINT18	= 2	; Pin Change Enable Mask 18
                                 .equ	PCINT19	= 3	; Pin Change Enable Mask 19
                                 .equ	PCINT20	= 4	; Pin Change Enable Mask 20
                                 .equ	PCINT21	= 5	; Pin Change Enable Mask 21
                                 .equ	PCINT22	= 6	; Pin Change Enable Mask 22
                                 .equ	PCINT23	= 7	; Pin Change Enable Mask 23
                                 
                                 ; PCMSK1 - Pin Change Mask Register 1
                                 .equ	PCINT8	= 0	; Pin Change Enable Mask 8
                                 .equ	PCINT9	= 1	; Pin Change Enable Mask 9
                                 .equ	PCINT10	= 2	; Pin Change Enable Mask 10
                                 .equ	PCINT11	= 3	; Pin Change Enable Mask 11
                                 .equ	PCINT12	= 4	; Pin Change Enable Mask 12
                                 .equ	PCINT13	= 5	; Pin Change Enable Mask 13
                                 .equ	PCINT14	= 6	; Pin Change Enable Mask 14
                                 
                                 ; PCMSK0 - Pin Change Mask Register 0
                                 .equ	PCINT0	= 0	; Pin Change Enable Mask 0
                                 .equ	PCINT1	= 1	; Pin Change Enable Mask 1
                                 .equ	PCINT2	= 2	; Pin Change Enable Mask 2
                                 .equ	PCINT3	= 3	; Pin Change Enable Mask 3
                                 .equ	PCINT4	= 4	; Pin Change Enable Mask 4
                                 .equ	PCINT5	= 5	; Pin Change Enable Mask 5
                                 .equ	PCINT6	= 6	; Pin Change Enable Mask 6
                                 .equ	PCINT7	= 7	; Pin Change Enable Mask 7
                                 
                                 ; PCIFR - Pin Change Interrupt Flag Register
                                 .equ	PCIF0	= 0	; Pin Change Interrupt Flag 0
                                 .equ	PCIF1	= 1	; Pin Change Interrupt Flag 1
                                 .equ	PCIF2	= 2	; Pin Change Interrupt Flag 2
                                 
                                 
                                 ; ***** SPI **************************
                                 ; SPDR - SPI Data Register
                                 .equ	SPDR0	= 0	; SPI Data Register bit 0
                                 .equ	SPDR1	= 1	; SPI Data Register bit 1
                                 .equ	SPDR2	= 2	; SPI Data Register bit 2
                                 .equ	SPDR3	= 3	; SPI Data Register bit 3
                                 .equ	SPDR4	= 4	; SPI Data Register bit 4
                                 .equ	SPDR5	= 5	; SPI Data Register bit 5
                                 .equ	SPDR6	= 6	; SPI Data Register bit 6
                                 .equ	SPDR7	= 7	; SPI Data Register bit 7
                                 
                                 ; SPSR - SPI Status Register
                                 .equ	SPI2X	= 0	; Double SPI Speed Bit
                                 .equ	WCOL	= 6	; Write Collision Flag
                                 .equ	SPIF	= 7	; SPI Interrupt Flag
                                 
                                 ; SPCR - SPI Control Register
                                 .equ	SPR0	= 0	; SPI Clock Rate Select 0
                                 .equ	SPR1	= 1	; SPI Clock Rate Select 1
                                 .equ	CPHA	= 2	; Clock Phase
                                 .equ	CPOL	= 3	; Clock polarity
                                 .equ	MSTR	= 4	; Master/Slave Select
                                 .equ	DORD	= 5	; Data Order
                                 .equ	SPE	= 6	; SPI Enable
                                 .equ	SPIE	= 7	; SPI Interrupt Enable
                                 
                                 
                                 ; ***** WATCHDOG *********************
                                 ; WDTCSR - Watchdog Timer Control Register
                                 .equ	WDP0	= 0	; Watch Dog Timer Prescaler bit 0
                                 .equ	WDP1	= 1	; Watch Dog Timer Prescaler bit 1
                                 .equ	WDP2	= 2	; Watch Dog Timer Prescaler bit 2
                                 .equ	WDE	= 3	; Watch Dog Enable
                                 .equ	WDCE	= 4	; Watchdog Change Enable
                                 .equ	WDP3	= 5	; Watchdog Timer Prescaler Bit 3
                                 .equ	WDIE	= 6	; Watchdog Timeout Interrupt Enable
                                 .equ	WDIF	= 7	; Watchdog Timeout Interrupt Flag
                                 
                                 
                                 ; ***** CPU **************************
                                 ; SREG - Status Register
                                 .equ	SREG_C	= 0	; Carry Flag
                                 .equ	SREG_Z	= 1	; Zero Flag
                                 .equ	SREG_N	= 2	; Negative Flag
                                 .equ	SREG_V	= 3	; Two's Complement Overflow Flag
                                 .equ	SREG_S	= 4	; Sign Bit
                                 .equ	SREG_H	= 5	; Half Carry Flag
                                 .equ	SREG_T	= 6	; Bit Copy Storage
                                 .equ	SREG_I	= 7	; Global Interrupt Enable
                                 
                                 ; OSCCAL - Oscillator Calibration Value
                                 .equ	CAL0	= 0	; Oscillator Calibration Value Bit0
                                 .equ	CAL1	= 1	; Oscillator Calibration Value Bit1
                                 .equ	CAL2	= 2	; Oscillator Calibration Value Bit2
                                 .equ	CAL3	= 3	; Oscillator Calibration Value Bit3
                                 .equ	CAL4	= 4	; Oscillator Calibration Value Bit4
                                 .equ	CAL5	= 5	; Oscillator Calibration Value Bit5
                                 .equ	CAL6	= 6	; Oscillator Calibration Value Bit6
                                 .equ	CAL7	= 7	; Oscillator Calibration Value Bit7
                                 
                                 ; CLKPR - Clock Prescale Register
                                 .equ	CLKPS0	= 0	; Clock Prescaler Select Bit 0
                                 .equ	CLKPS1	= 1	; Clock Prescaler Select Bit 1
                                 .equ	CLKPS2	= 2	; Clock Prescaler Select Bit 2
                                 .equ	CLKPS3	= 3	; Clock Prescaler Select Bit 3
                                 .equ	CLKPCE	= 7	; Clock Prescaler Change Enable
                                 
                                 ; SPMCSR - Store Program Memory Control and Status Register
                                 .equ    SELFPRGEN = 0; Added for backwards compatibility
                                 .equ	SPMEN	= 0	; Store Program Memory
                                 .equ	PGERS	= 1	; Page Erase
                                 .equ	PGWRT	= 2	; Page Write
                                 .equ	BLBSET	= 3	; Boot Lock Bit Set
                                 .equ	RWWSRE	= 4	; Read-While-Write section read enable
                                 .equ    SIGRD   = 5 ; Signature Row Read
                                 .equ	RWWSB	= 6	; Read-While-Write Section Busy
                                 .equ	SPMIE	= 7	; SPM Interrupt Enable
                                 
                                 ; MCUCR - MCU Control Register
                                 .equ	IVCE	= 0	; 
                                 .equ	IVSEL	= 1	; 
                                 .equ	PUD	= 4	; 
                                 .equ	BODSE	= 5	; BOD Sleep Enable
                                 .equ	BODS	= 6	; BOD Sleep
                                 
                                 ; MCUSR - MCU Status Register
                                 .equ	PORF	= 0	; Power-on reset flag
                                 .equ	EXTRF	= 1	; External Reset Flag
                                 .equ	EXTREF	= EXTRF	; For compatibility
                                 .equ	BORF	= 2	; Brown-out Reset Flag
                                 .equ	WDRF	= 3	; Watchdog Reset Flag
                                 
                                 ; SMCR - Sleep Mode Control Register
                                 .equ	SE	= 0	; Sleep Enable
                                 .equ	SM0	= 1	; Sleep Mode Select Bit 0
                                 .equ	SM1	= 2	; Sleep Mode Select Bit 1
                                 .equ	SM2	= 3	; Sleep Mode Select Bit 2
                                 
                                 ; GPIOR2 - General Purpose I/O Register 2
                                 .equ	GPIOR20	= 0	; 
                                 .equ	GPIOR21	= 1	; 
                                 .equ	GPIOR22	= 2	; 
                                 .equ	GPIOR23	= 3	; 
                                 .equ	GPIOR24	= 4	; 
                                 .equ	GPIOR25	= 5	; 
                                 .equ	GPIOR26	= 6	; 
                                 .equ	GPIOR27	= 7	; 
                                 
                                 ; GPIOR1 - General Purpose I/O Register 1
                                 .equ	GPIOR10	= 0	; 
                                 .equ	GPIOR11	= 1	; 
                                 .equ	GPIOR12	= 2	; 
                                 .equ	GPIOR13	= 3	; 
                                 .equ	GPIOR14	= 4	; 
                                 .equ	GPIOR15	= 5	; 
                                 .equ	GPIOR16	= 6	; 
                                 .equ	GPIOR17	= 7	; 
                                 
                                 ; GPIOR0 - General Purpose I/O Register 0
                                 .equ	GPIOR00	= 0	; 
                                 .equ	GPIOR01	= 1	; 
                                 .equ	GPIOR02	= 2	; 
                                 .equ	GPIOR03	= 3	; 
                                 .equ	GPIOR04	= 4	; 
                                 .equ	GPIOR05	= 5	; 
                                 .equ	GPIOR06	= 6	; 
                                 .equ	GPIOR07	= 7	; 
                                 
                                 ; PRR - Power Reduction Register
                                 .equ	PRADC	= 0	; Power Reduction ADC
                                 .equ	PRUSART0	= 1	; Power Reduction USART
                                 .equ	PRSPI	= 2	; Power Reduction Serial Peripheral Interface
                                 .equ	PRTIM1	= 3	; Power Reduction Timer/Counter1
                                 .equ	PRTIM0	= 5	; Power Reduction Timer/Counter0
                                 .equ	PRTIM2	= 6	; Power Reduction Timer/Counter2
                                 .equ	PRTWI	= 7	; Power Reduction TWI
                                 
                                 
                                 ; ***** EEPROM ***********************
                                 ; EEARL - EEPROM Address Register Low Byte
                                 .equ	EEAR0	= 0	; EEPROM Read/Write Access Bit 0
                                 .equ	EEAR1	= 1	; EEPROM Read/Write Access Bit 1
                                 .equ	EEAR2	= 2	; EEPROM Read/Write Access Bit 2
                                 .equ	EEAR3	= 3	; EEPROM Read/Write Access Bit 3
                                 .equ	EEAR4	= 4	; EEPROM Read/Write Access Bit 4
                                 .equ	EEAR5	= 5	; EEPROM Read/Write Access Bit 5
                                 .equ	EEAR6	= 6	; EEPROM Read/Write Access Bit 6
                                 .equ	EEAR7	= 7	; EEPROM Read/Write Access Bit 7
                                 
                                 ; EEARH - EEPROM Address Register High Byte
                                 .equ	EEAR8	= 0	; EEPROM Read/Write Access Bit 8
                                 .equ	EEAR9	= 1	; EEPROM Read/Write Access Bit 9
                                 
                                 ; EEDR - EEPROM Data Register
                                 .equ	EEDR0	= 0	; EEPROM Data Register bit 0
                                 .equ	EEDR1	= 1	; EEPROM Data Register bit 1
                                 .equ	EEDR2	= 2	; EEPROM Data Register bit 2
                                 .equ	EEDR3	= 3	; EEPROM Data Register bit 3
                                 .equ	EEDR4	= 4	; EEPROM Data Register bit 4
                                 .equ	EEDR5	= 5	; EEPROM Data Register bit 5
                                 .equ	EEDR6	= 6	; EEPROM Data Register bit 6
                                 .equ	EEDR7	= 7	; EEPROM Data Register bit 7
                                 
                                 ; EECR - EEPROM Control Register
                                 .equ	EERE	= 0	; EEPROM Read Enable
                                 .equ	EEPE	= 1	; EEPROM Write Enable
                                 .equ	EEMPE	= 2	; EEPROM Master Write Enable
                                 .equ	EERIE	= 3	; EEPROM Ready Interrupt Enable
                                 .equ	EEPM0	= 4	; EEPROM Programming Mode Bit 0
                                 .equ	EEPM1	= 5	; EEPROM Programming Mode Bit 1
                                 
                                 
                                 
                                 ; ***** LOCKSBITS ********************************************************
                                 .equ	LB1	= 0	; Lock bit
                                 .equ	LB2	= 1	; Lock bit
                                 .equ	BLB01	= 2	; Boot Lock bit
                                 .equ	BLB02	= 3	; Boot Lock bit
                                 .equ	BLB11	= 4	; Boot lock bit
                                 .equ	BLB12	= 5	; Boot lock bit
                                 
                                 
                                 ; ***** FUSES ************************************************************
                                 ; LOW fuse bits
                                 .equ	CKSEL0	= 0	; Select Clock Source
                                 .equ	CKSEL1	= 1	; Select Clock Source
                                 .equ	CKSEL2	= 2	; Select Clock Source
                                 .equ	CKSEL3	= 3	; Select Clock Source
                                 .equ	SUT0	= 4	; Select start-up time
                                 .equ	SUT1	= 5	; Select start-up time
                                 .equ	CKOUT	= 6	; Clock output
                                 .equ	CKDIV8	= 7	; Divide clock by 8
                                 
                                 ; HIGH fuse bits
                                 .equ	BOOTRST	= 0	; Select reset vector
                                 .equ	BOOTSZ0	= 1	; Select boot size
                                 .equ	BOOTSZ1	= 2	; Select boot size
                                 .equ	EESAVE	= 3	; EEPROM memory is preserved through chip erase
                                 .equ	WDTON	= 4	; Watchdog Timer Always On
                                 .equ	SPIEN	= 5	; Enable Serial programming and Data Downloading
                                 .equ	DWEN	= 6	; debugWIRE Enable
                                 .equ	RSTDISBL	= 7	; External reset disable
                                 
                                 ; EXTENDED fuse bits
                                 .equ	BODLEVEL0	= 0	; Brown-out Detector trigger level
                                 .equ	BODLEVEL1	= 1	; Brown-out Detector trigger level
                                 .equ	BODLEVEL2	= 2	; Brown-out Detector trigger level
                                 
                                 
                                 
                                 ; ***** CPU REGISTER DEFINITIONS *****************************************
                                 .def	XH	= r27
                                 .def	XL	= r26
                                 .def	YH	= r29
                                 .def	YL	= r28
                                 .def	ZH	= r31
                                 .def	ZL	= r30
                                 
                                 
                                 
                                 ; ***** DATA MEMORY DECLARATIONS *****************************************
                                 .equ	FLASHEND	= 0x3fff	; Note: Word address
                                 .equ	IOEND	= 0x00ff
                                 .equ	SRAM_START	= 0x0100
                                 .equ	SRAM_SIZE	= 2048
                                 .equ	RAMEND	= 0x08ff
                                 .equ	XRAMEND	= 0x0000
                                 .equ	E2END	= 0x03ff
                                 .equ	EEPROMEND	= 0x03ff
                                 .equ	EEADRBITS	= 10
                                 #pragma AVRPART MEMORY PROG_FLASH 32768
                                 #pragma AVRPART MEMORY EEPROM 1024
                                 #pragma AVRPART MEMORY INT_SRAM SIZE 2048
                                 #pragma AVRPART MEMORY INT_SRAM START_ADDR 0x100
                                 
                                 
                                 
                                 ; ***** BOOTLOADER DECLARATIONS ******************************************
                                 .equ	NRWW_START_ADDR	= 0x3800
                                 .equ	NRWW_STOP_ADDR	= 0x3fff
                                 .equ	RWW_START_ADDR	= 0x0
                                 .equ	RWW_STOP_ADDR	= 0x37ff
                                 .equ	PAGESIZE	= 64
                                 .equ	FIRSTBOOTSTART	= 0x3f00
                                 .equ	SECONDBOOTSTART	= 0x3e00
                                 .equ	THIRDBOOTSTART	= 0x3c00
                                 .equ	FOURTHBOOTSTART	= 0x3800
                                 .equ	SMALLBOOTSTART	= FIRSTBOOTSTART
                                 .equ	LARGEBOOTSTART	= FOURTHBOOTSTART
                                 
                                 
                                 
                                 ; ***** INTERRUPT VECTORS ************************************************
                                 .equ	INT0addr	= 0x0002	; External Interrupt Request 0
                                 .equ	INT1addr	= 0x0004	; External Interrupt Request 1
                                 .equ	PCI0addr	= 0x0006	; Pin Change Interrupt Request 0
                                 .equ	PCI1addr	= 0x0008	; Pin Change Interrupt Request 0
                                 .equ	PCI2addr	= 0x000a	; Pin Change Interrupt Request 1
                                 .equ	WDTaddr	= 0x000c	; Watchdog Time-out Interrupt
                                 .equ	OC2Aaddr	= 0x000e	; Timer/Counter2 Compare Match A
                                 .equ	OC2Baddr	= 0x0010	; Timer/Counter2 Compare Match A
                                 .equ	OVF2addr	= 0x0012	; Timer/Counter2 Overflow
                                 .equ	ICP1addr	= 0x0014	; Timer/Counter1 Capture Event
                                 .equ	OC1Aaddr	= 0x0016	; Timer/Counter1 Compare Match A
                                 .equ	OC1Baddr	= 0x0018	; Timer/Counter1 Compare Match B
                                 .equ	OVF1addr	= 0x001a	; Timer/Counter1 Overflow
                                 .equ	OC0Aaddr	= 0x001c	; TimerCounter0 Compare Match A
                                 .equ	OC0Baddr	= 0x001e	; TimerCounter0 Compare Match B
                                 .equ	OVF0addr	= 0x0020	; Timer/Couner0 Overflow
                                 .equ	SPIaddr	= 0x0022	; SPI Serial Transfer Complete
                                 .equ	URXCaddr	= 0x0024	; USART Rx Complete
                                 .equ	UDREaddr	= 0x0026	; USART, Data Register Empty
                                 .equ	UTXCaddr	= 0x0028	; USART Tx Complete
                                 .equ	ADCCaddr	= 0x002a	; ADC Conversion Complete
                                 .equ	ERDYaddr	= 0x002c	; EEPROM Ready
                                 .equ	ACIaddr	= 0x002e	; Analog Comparator
                                 .equ	TWIaddr	= 0x0030	; Two-wire Serial Interface
                                 .equ	SPMRaddr	= 0x0032	; Store Program Memory Read
                                 
                                 .equ	INT_VECTORS_SIZE	= 52	; size in words
                                 
                                 #endif  /* _M328PDEF_INC_ */
                                 
                                 ; ***** END OF FILE ******************************************************
                                 
                                 .Org $0000
                                 .include "int_atmega328p.inc"
                                 
                                 ;****************************************************************************************************
                                 ;****************************************************************************************************
                                 ;interrupt atmega328jmp RESET ; Reset
000000 940c 04bd                 jmp reset
000002 940c 059c                 jmp Latch ; IRQ0
000004 940c 0577                 jmp pushbutton ; IRQ1
000006 940c 04bd                 jmp reset ; PCINT0
000008 940c 04bd                 jmp reset ; PCINT1
00000a 940c 04bd                 jmp reset ; PCINT2
00000c 940c 0671                 jmp watchdog_overflow ; Watchdog Timeout
00000e 940c 04bd                 jmp reset ; Timer2 CompareA
000010 940c 04bd                 jmp reset ; Timer2 CompareB
000012 940c 04bd                 jmp reset ; Timer2 Overflow
000014 940c 04bd                 jmp reset ; Timer1 Capture
000016 940c 04bd                 jmp reset ; Timer1 CompareA
000018 940c 04bd                 jmp reset ; Timer1 CompareB
00001a 940c 04bd                 jmp reset ; Timer1 Overflow
00001c 940c 04bd                 jmp reset ; Timer0 CompareA
00001e 940c 04bd                 jmp reset ; Timer0 CompareB
000020 940c 0538                 jmp TIM0_OVF ; Timer0 Overflow
000022 940c 04bd                 jmp reset ; SPI Transfer Complete
000024 940c 04bd                 jmp reset ; USART RX Complete
000026 940c 04bd                 jmp reset ; USART UDR Empty
000028 940c 04bd                 jmp reset ; USART TX Complete
00002a 940c 04bd                 jmp reset ; ADC Conversion Complete
00002c 940c 04bd                 jmp reset ; EEPROM Ready
00002e 940c 04bd                 jmp reset ; Analog Comparator
000030 940c 04bd                 jmp reset ; 2-wire Serial
000032 940c 04bd                 jmp reset ; SPM Ready
                                 
                                 ;dfinition des rgistres.
                                 .def temp =R16	
                                 .def temp2=r17
                                 
                                 ;memoire
                                 .equ comptel = $100				;flag. Si = 1 = ca compte
                                 .equ compteh = $101
                                 .equ GateTime = $104			;1 = default = 1000s
                                 .equ frequence_1 = $109
                                 .equ frequence_2 = $10a
                                 .equ frequence_3 = $10b
                                 .equ frequence_4 = $10c
                                 .equ frequence_5 = $10d
                                 .equ byte = $121
                                 .equ frebcd1 = $127
                                 .equ frebcd2 = $126
                                 .equ frebcd3 = $125
                                 .equ frebcd4 = $124
                                 .equ frebcd5 = $123
                                 .equ frebcd6 = $122
                                 .equ pwmphase6h = $12b
                                 .equ pwmphase6l= $12c
                                 .equ echantillon_timel = $12e
                                 .equ echantillon_timeh = $12f
                                 .equ eeprompointer = $134
                                 .equ satelliteh = $136
                                 .equ satellitel = $137
                                 .equ affichesatelliteflag = $138
                                 .equ heureh= $220
                                 .equ heurel= $221
                                 .equ minuteh= $222
                                 .equ minutel= $223
                                 .equ secondeh= $224
                                 .equ secondel= $225
                                 .equ ledcompteurflag = $227
                                 .equ ledcompteurflag2 = $228
                                 ;memoire lattitute longitude
                                 .equ gga = $240 ; ne rien mettre en haut de 240 car la string que je garde est assez longue. 40 bytes ou plus
                                 
                                 .eseg 
                                 ;.db $98,$E9 ;genere un fichier eeprom lors de la compilation avec les valeurs de .eseg
000000 84
000001 ca                        .db $84,$CA
                                 .CSEG	;code segment. 
                                 .include "m328pdef.inc"		;instruction jmp utiliser pour interrupt
                                 
                                 ;***** Created: 2011-02-09 12:03 ******* Source: ATmega328P.xml **********
                                 ;*************************************************************************
                                 ;* A P P L I C A T I O N   N O T E   F O R   T H E   A V R   F A M I L Y
                                 ;* 
                                 ;* Number            : AVR000
                                 ;* File Name         : "m328Pdef.inc"
                                 ;* Title             : Register/Bit Definitions for the ATmega328P
                                 ;* Date              : 2011-02-09
                                 ;* Version           : 2.35
                                 ;* Support E-mail    : avr@atmel.com
                                 ;* Target MCU        : ATmega328P
                                 ;* 
                                 ;* DESCRIPTION
                                 ;* When including this file in the assembly program file, all I/O register 
                                 ;* names and I/O register bit names appearing in the data book can be used.
                                 ;* In addition, the six registers forming the three data pointers X, Y and 
                                 ;* Z have been assigned names XL - ZH. Highest RAM address for Internal 
                                 ;* SRAM is also defined 
                                 ;* 
                                 ;* The Register names are represented by their hexadecimal address.
                                 ;* 
                                 ;* The Register Bit names are represented by their bit number (0-7).
                                 ;* 
                                 ;* Please observe the difference in using the bit names with instructions
                                 ;* such as "sbr"/"cbr" (set/clear bit in register) and "sbrs"/"sbrc"
                                 ;* (skip if bit in register set/cleared). The following example illustrates
                                 ;* this:
                                 ;* 
                                 ;* in    r16,PORTB             ;read PORTB latch
                                 ;* sbr   r16,(1<<PB6)+(1<<PB5) ;set PB6 and PB5 (use masks, not bit#)
                                 ;* out   PORTB,r16             ;output to PORTB
                                 ;* 
                                 ;* in    r16,TIFR              ;read the Timer Interrupt Flag Register
                                 ;* sbrc  r16,TOV0              ;test the overflow flag (use bit#)
                                 ;* rjmp  TOV0_is_set           ;jump if set
                                 ;* ...                         ;otherwise do something else
                                 ;*************************************************************************
                                 
                                 #ifndef _M328PDEF_INC_
                                 #endif  /* _M328PDEF_INC_ */
                                 
                                 ; ***** END OF FILE ******************************************************
                                 .include "macros.inc"
                                 
                                 ;*	file: macros.inc
                                 ;*
                                 ;*	Description:
                                 ;*	Source file for application note AVR001 - Conditional Assembly
                                 ;*	and Portability Macros.
                                 ;*
                                 ;*	Defines a number of macros that makes it easier to access
                                 ;*	IO registers and extended IO registers (or SRAM locations up
                                 ;*  to adress $FF if applicable).
                                 ;*	The macros can be used to produce code that assembles to
                                 ;*	any target AVR, without considering if the accessed IO
                                 ;*	registers are located in low, standard or extended IO space
                                 ;*
                                 ;* $Revision: 2.2 $	
                                 ;* $Author: jllassen $
                                 ;* $Date: Wednesday, January 26, 2005 10:55:18 UTC $
                                 ;*****************************************************************
                                 
                                 ;*********************************************************
                                 ;*	BIT access anywhere in IO or lower $FF of data space
                                 ;*	SETB - SET Bit in IO of data space
                                 ;*	CLRB - CLeaR Bit in IO of data space
                                 ;*********************************************************
                                 
                                 .MACRO SETB 		;Arguments: Address, Bit, Register
                                 	.if @1>7
                                 		.message "Only values 0-7 allowed for Bit parameter"
                                 	.endif
                                 	.if @0>0x3F
                                 		lds  @2, @0
                                 		sbr  @2, (1<<@1)
                                 		sts  @0, @2
                                 	.elif @0>0x1F
                                 		in   @2, @0
                                 		sbr  @2, (1<<@1)
                                 		out  @0, @2
                                 	.else
                                 		sbi  @0, @1
                                 	.endif
                                 .ENDMACRO
                                 
                                 .MACRO CLRB 		;Arguments: Address, Bit, Register
                                 	.if @1>7
                                 		.message "Only values 0-7 allowed for Bit parameter"
                                 	.endif
                                 	.if @0>0x3F
                                 		lds  @2, @0
                                 		cbr  @2, (1<<@1)
                                 		sts  @0, @2
                                 	.elif @0>0x1F
                                 		in   @2, @0
                                 		cbr  @2, (1<<@1)
                                 		out  @0, @2
                                 	.else
                                 		cbi  @0, @1
                                 	.endif
                                 .ENDMACRO
                                 
                                 ;*********************************************************
                                 ;*	Bit test anywhere in IO or in lower $FF of data space
                                 ;*  SKBS : SKip if Bit Set
                                 ;*  SKBC : SKip if Bit Cleared
                                 ;*********************************************************
                                 .MACRO SKBS  		;Arguments: Address, Bit, Register
                                 	.if @1>7
                                 		.message "Only values 0-7 allowed for Bit parameter"
                                 	.endif
                                 	.if @0>0x3F
                                 		lds  @2, @0
                                 		sbrs @2, @1
                                 	.elif @0>0x1F
                                 		in   @2, @0
                                 		sbrs @2, @1
                                 	.else
                                 		sbis @0, @1
                                 	.endif
                                 .ENDMACRO
                                 
                                 .MACRO SKBC  		;Arguments: Address, Bit, Register
                                 	.if @1>7
                                 		.message "Only values 0-7 allowed for Bit parameter"
                                 	.endif
                                 	.if @0>0x3F
                                 		lds	 @2, @0
                                 		sbrc @2, @1
                                 	.elif @0>0x1F
                                 		in	 @2, @0
                                 		sbrc @2, @1
                                 	.else
                                 		sbic @0, @1
                                 	.endif
                                 .ENDMACRO
                                 
                                 ;*********************************************************
                                 ;*	Byte access anywhere in IO or lower $FF of data space
                                 ;* 	STORE - Store register in IO or data space
                                 ;* 	LOAD  - Load register from IO or data space
                                 ;*********************************************************
                                 
                                 .MACRO STORE 		;Arguments: Address, Register
                                 	.if	@0>0x3F
                                 		sts	@0, @1
                                 	.else
                                 		out	@0, @1
                                 	.endif
                                 .ENDMACRO
                                 
                                 .MACRO LOAD 		;Arguments: Register, Address
                                 	.if	@1>0x3F
                                 		lds	@0, @1
                                 	.else
                                 		in	@0, @1
                                 	.endif
                                 .ENDMACRO
                                 .include "afficheur.asm"
                                 
                                 data7:
000034 6f43
000035 6e75
000036 6574
000037 2072
000038 5459
000039 7620
00003a 2e31
00003b 3230                      	.db "Counter YT v1.02" ; ,04 si impair
00003c 0004                      	.db $04,00 
                                 data19:
00003d 6f4e
00003e 7020
00003f 6c75
000040 6573
000041 202e
000042 2020
000043 2020
000044 2020                      	.db "No pulse.       " ; ,04 si impair
000045 0004                      	.db $04,00
                                 data20:
000046 6553
000047 2074
000048 6f74
000049 4420
00004a 6665
00004b 7561
00004c 746c
00004d 2020                      	.db "Set to Default  " ; ,04 si impair
00004e 0004                      	.db $04,00
                                 data32:
00004f 6157
000050 7469
000051 6e69
000052 2e67
000053 2e2e
000054 2020
000055 2020
000056 2020                      	.db "Waiting...      " ; ,04 si impair
000057 0004                      	.db $04,00
                                 data34:
000058 6147
000059 6574
00005a 3120
00005b 3030
00005c 3030
00005d 0473                      	.db "Gate 10000s"  ,04; si impair
                                 	;.db $04,00 
                                 data37:
00005e 6147
00005f 6574
000060 3120
000061 3030
000062 7330                      	.db "Gate 1000s" ; ,04 si impair
000063 0004                      	.db $04,00
                                 data40:
000064 614c
000065 7473
000066 4620
000067 6572
000068 7571
000069 6e65
00006a 7963
00006b 3d20                      	.db "Last Frequency =" ; ,04 si impair
00006c 0004                      	.db $04,00
                                 hexa:
                                 
00006d 3130
00006e 3332
00006f 3534
000070 3736
000071 3938
000072 4241
000073 4443
000074 4645                      .db		$30,$31,$32,$33,$34,$35,$36,$37,$38,$39,$41,$42,$43,$44,$45,$46
                                 
                                 ;******************************************reset afficheur*********************************
                                 ;******************************************************************************************
                                 reset_afficheur:	;sous routine pour initialiser l'afficheur pour la premieres fois.
000075 e003                      		ldi r16, $03 ;$30     ;ici Je force l'afficheur  tre sur 8 bits.
000076 b908                              out portc, r16	;en lui envoyant la commande 3x
000077 d01e                              rcall enable	;MET 1 SUR LA BROCHE E
                                 	  					;il faut le forcer en 8 bits avant. Pourquoi ??? Pour quand on reset!
000078 e003                      		ldi r16,$03    	;Si on est en mode 4 bit... on envois 2 trame de 4 bits. Quand on reset
000079 b908                              out portc, r16	;entre les 2 trames, la seconde reu n'est pas la bonne et l'afficheur crit
00007a d01b                              rcall enable	;n'importe quoi.
                                 
00007b e003                      		ldi r16,$03		;Il faut le forcer au moin 3 fois de suite pour lminerle problme.
00007c b908                              out portc, r16
00007d d018                              rcall enable
                                 
00007e e002                      		ldi r16,$02     ;Ici avec cette commande, on passe en 4 bits. NOW
00007f b908                              out portc, r16	
000080 d015                              rcall enable	
                                 
000081 e002                      		ldi r16,$02 ;EN ECRITURE, 4 BITS, NOMBRE DE LIGNES 1=2 LIGNES... (28)
000082 b908                      	    out portc, r16
000083 d012                      	    rcall enable 
000084 d09c                      		rcall tempo2ms
000085 e008                      		ldi r16,$08 
000086 b908                      	    out portc, r16
000087 d00e                      	    rcall enable
                                 
000088 e000                      	    ldi r16,$00     ;DISPLAY ON, CURSEUR OFF (0c)
000089 b908                              out portc, r16
00008a d00b                              rcall enable
00008b e00c                              ldi r16,$0c
00008c b908                              out portc, r16
00008d d008                              rcall enable
                                 
00008e e000                              ldi r16,$00     ;SET MODE, INCREMENTE, DISPLAY FREEZE (06)
00008f b908                              out portc,r16
000090 d005                              rcall enable
000091 e006                              ldi r16,$06
000092 b908                              out portc,r16
000093 d002                              rcall enable
000094 d00b                      		rcall videecran	;ici vedeecran est en sous routine car a sert souvent.
000095 9508                      		ret
                                 
                                 ;********************************** enable ********************
000096 9845                      enable: cbi portc,5		;met RS  0 pour une commande
000097 9a44                              sbi portc,4		;met E a 1 pour valider (enable)
000098 d088                              rcall tempo2ms    	;2ms. La boucle enable est plus longue que celle de ecris qui est de 50us
000099 9844                              cbi portc,4		;selon les datasheets enable = 1.64ms et 40us pour ecris.
00009a 9508                              ret
                                 
                                 ;********************************* ecris **********************
00009b 9a45                      ecris:  sbi portc,5		;mer RS  1 pour une donne
00009c 9a44                              sbi portc,4    	;met E a 1 pour valider (enable)          
00009d d07d                              rcall t50us		;BOUCLE DE TEMPS 50us
00009e 9844                      		cbi portc,4
00009f 9508                              ret
                                 
                                 ;************************** videecran ****************************************
                                 videecran:
0000a0 e000                              ldi r16,$00     ;CLS	(01)
0000a1 b908                              out portc,r16
0000a2 dff3                              rcall enable
0000a3 e001                              ldi r16,$01     ;CLS
0000a4 b908                              out portc,r16
0000a5 dff0                              rcall enable
0000a6 9508                      		ret
                                 
                                 ;************************** posi1 **********************************
0000a7 e008                      posi1:  ldi temp,$08	;80, c0, 94, d4 sont les positions du debut des lignes de l'afficheur
0000a8 b908                             	out portc,r16
0000a9 dfec                              rcall enable
0000aa e000                              ldi temp,$00
0000ab b908                             	out portc,r16
0000ac dfe9                              rcall enable
0000ad 9508                              ret
                                 
                                 ;************************** posi2 ***********************************
0000ae e00c                      posi2:  ldi r16,$0c  	;c0
0000af b908                             	out portc,r16
0000b0 dfe5                              rcall enable
0000b1 e000                              ldi r16,$00
0000b2 b908                             	out portc,r16
0000b3 dfe2                              rcall enable
0000b4 9508                              ret
                                 
                                 ;************************** posisat *************************
                                 posisat:  
0000b5 e008                      		ldi temp,$08	;94		;positionne sur les 3 dernier digit de la premiere ligne pour afficher les sattelite
0000b6 b908                             	out portc,r16
0000b7 dfde                              rcall enable
0000b8 e00c                              ldi temp,$0C
0000b9 b908                             	out portc,r16
0000ba dfdb                              rcall enable
0000bb 9508                              ret
                                 
                                 ;************************* espace ***************************
                                 espace:		;cris un espace (20 en ascii)
0000bc e200                      		ldi temp, $20		;space
0000bd d00b                      		rcall afficheascii
0000be 9508                      		ret
                                 
                                 ;************************* Efface Ligne**********************
                                 effaceligne:
0000bf 930f                      		push temp
0000c0 e110                      		ldi temp2, 16
                                 effaceligne2:
0000c1 931f                      		push temp2
0000c2 e200                      		ldi temp, $20
0000c3 d005                      		rcall afficheascii
0000c4 911f                      		pop temp2
0000c5 951a                      		dec temp2
0000c6 f7d1                      		brne effaceligne2
0000c7 910f                      		pop temp
0000c8 9508                      		ret
                                 
                                 ;************************* affiche ascii **********************************
                                 afficheascii:	;affiche un nombre qui est dans temp. Ce nombre doit etre dja en ascii
                                 				;si $41 est dans temp, un A sera affich.
0000c9 930f                      		push temp
0000ca 2f10                      		mov r17, temp   ;pour sparer les 4 msb des 4 lsb dans r21 et r22
0000cb 9502                      		swap temp
0000cc 700f                      		andi temp, $0f	;04 se retrouve dans temp
0000cd 701f                      		andi r17, $0f	;01 se retrouve dans r17
0000ce b908                      		out portc, temp
0000cf dfcb                      		rcall ecris
0000d0 b918                      		out portc, r17
0000d1 dfc9                      		rcall ecris
0000d2 910f                      		pop temp
0000d3 9508                      		ret
                                 ;*************************** affichenombre *******************************************
                                 affichenombre: 	;affiche un nombre DCB. Exemple si 0x17 est dans temp. 17 sera affich
                                 				;donc 17 = 30 + 10 (31) + 30 + 70 (37)
                                 				;Si $09 est dans temp seulement 9 sera affich (pas de 0)
0000d4 930f                      		push temp
0000d5 9300 0121                 		sts byte, temp		;ici on met en mmoire le registre 16  l'emplacement $60
                                 plushaut:
0000d7 e013                      		ldi r17, 0x03		;add 30 au chiffre pour le rendre ascii
0000d8 b918                      		out portc, r17
0000d9 dfc1                      		rcall ecris
0000da 9100 0121                 		lds temp, byte
0000dc ef10                      		ldi r17, 0b11110000    ;pour sparer les 4 msb des 4 lsb
0000dd 2301                      		and temp, r17
0000de 9502                      		swap temp
0000df b908                      		out portc, temp
0000e0 dfba                      		rcall ecris	
                                 affichenombre2:	;ecris juste un chiffre. si 02 est dans byte 2 va etre affich.
0000e1 e013                      		ldi r17, 0x03		;add 30 au chiffre pour le rendre ascii
0000e2 b918                      		out portc, r17
0000e3 dfb7                      		rcall ecris
0000e4 9100 0121                 		lds temp, byte
0000e6 e01f                      		ldi r17, 0b00001111    ;pour sparer les 4 msb des 4 lsb
0000e7 2301                      		and temp, r17
0000e8 b908                      		out portc, temp
0000e9 dfb1                      		rcall ecris
0000ea 910f                      		pop temp
0000eb 9508                      		ret
                                 
                                 ;*************************** affichemsb ******************************************
                                 affichemsb:					;affiche le msb d'un nombre de 0 a 9 si 45 est dans temp 4 sera affich
0000ec 930f                      		push temp
0000ed 9300 0121                 		sts byte, temp
0000ef e013                      		ldi r17, 0x03		;add 30 au chiffre pour le rendre ascii
0000f0 b918                      		out portc, r17
0000f1 dfa9                      		rcall ecris
0000f2 9100 0121                 		lds temp, byte
0000f4 ef10                      		ldi r17, 0b11110000    ;pour sparer les 4 msb des 4 lsb
0000f5 2301                      		and temp, r17
0000f6 9502                      		swap temp
0000f7 b908                      		out portc, temp
0000f8 dfa2                      		rcall ecris
0000f9 910f                      		pop temp
0000fa 9508                      		ret
                                 
                                 ;*************************** affichemlsb ******************************************
                                 affichelsb:					;affiche le lsb d'un nombre de 0 a 9 si 45 est dans temp 5 sera affich
0000fb 930f                      		push temp
0000fc 9300 0121                 		sts byte, temp
0000fe e013                      		ldi r17, 0x03		;add 30 au chiffre pour le rendre ascii
0000ff b918                      		out portc, r17
000100 df9a                      		rcall ecris
000101 9100 0121                 		lds temp, byte
000103 e01f                      		ldi r17, 0b00001111    ;pour sparer les 4 msb des 4 lsb
000104 2301                      		and temp, r17
000105 b908                      		out portc, temp
000106 df94                      		rcall ecris
000107 910f                      		pop temp
000108 9508                      		ret
                                 
                                 ;***************************** message ****************************************
                                 message:
000109 95c8                      		lpm				;lpm = load program memory. Le contenu de l'adresse point par Z se retrouve dans R0
00010a 2d00                      		mov temp, r0	;comparons r0 avec 04 pour vois si le message est  la fin
00010b 3004                      		cpi temp, $04
00010c f069                      		breq finmessage
00010d 2d00                      		mov temp, r0  	;Il faut sparer la valeur lu, exemple:(41) en 40 et 10 pour envoyer  l'afficheur
00010e 940e 02ff                 		call tx
000110 2d10                      		mov r17, r0	
000111 9502                      		swap temp
000112 700f                      		andi temp,$0F
000113 701f                      		andi r17, $0F
000114 b908                      		out portc, temp	;on envois la valeur haute en premier exemple: A = 41 donc (40)
000115 df85                      		rcall ecris
000116 b918                      		out portc, r17	;et la valeur basse. Exemple A=41 donc (10)
000117 df83                      		rcall ecris
000118 9631                      		adiw ZH:ZL,1	;incremente zh,zl et va relire l'addresse suivante
000119 cfef                      		rjmp message	
                                 finmessage:	
00011a 9508                      		ret
                                 
                                 ;****************************Boucle de temps*******************************
                                 ;pour 10MHZ
                                 t50us:
00011b ea26                              ldi  R18, $A6
00011c 952a                      LOOP0:  dec  R18
00011d f7f1                              brne LOOP0
00011e 0000                              nop
00011f 0000                              nop
000120 9508                      		ret
                                 
                                 tempo2ms: ;2ms a 10mhz
000121 e231                              ldi  R19, $21
000122 ec29                      LOOP0e: ldi  R18, $C9
000123 952a                      LOOP1e: dec  R18
000124 f7f1                              brne LOOP1e
000125 953a                              dec  R19
000126 f7d9                              brne LOOP0e
000127 9508                      		ret
                                 
                                 tempo10ms:
000128 e019                              ldi  R17, $09
000129 eb2c                      LOOP0m: ldi  R18, $BC
00012a ec34                      LOOP1m: ldi  R19, $C4
00012b 953a                      LOOP2m: dec  R19
00012c f7f1                              brne LOOP2m
00012d 952a                              dec  R18
00012e f7d9                              brne LOOP1m
00012f 951a                              dec  R17
000130 f7c1                              brne LOOP0m
000131 9508                      		ret
                                 
                                 tempo300ms:
000132 e110                              ldi  R17, $10
000133 ef28                      LOOP0f: ldi  R18, $F8
000134 ef3b                      LOOP1f: ldi  R19, $FB
000135 953a                      LOOP2f: dec  R19
000136 f7f1                              brne LOOP2f
000137 952a                              dec  R18
000138 f7d9                              brne LOOP1f
000139 951a                              dec  R17
00013a f7c1                              brne LOOP0f
00013b 9508                      		ret
                                 
                                 tempo5s:
00013c e1f0                      		ldi r31, $10
                                 encoreplus:
00013d dff4                      		rcall tempo300ms
00013e 95a8                      		wdr
00013f 95fa                      		dec r31
000140 f7e1                      		brne encoreplus
000141 9508                      		ret
                                 
                                 
                                 ;*************************** affiche 10000 1000 **************************************
                                 afficheGate10000s:
000142 df64                      		rcall posi1
000143 e0f0                      		ldi r31,high(data34*2)  	;0x7fff 10ks S=12
000144 ebe0                      		ldi r30,low(data34*2)
000145 dfc3                      		rcall message
000146 9508                      		ret
                                 afficheGate1000s:
000147 df5f                      		rcall posi1
000148 e0f0                      		ldi r31,high(data37*2)  	;0x7fff 10ks S=12
000149 ebec                      		ldi r30,low(data37*2)
00014a dfbe                      		rcall message
00014b 9508                      		ret
                                 
                                 
                                 ;**************************** affichememoire *************************************
                                 ;affiche le contenu tel quel. exemple si $3a est dans temp 3a sera afficher
                                 affichememoire:
00014c 930f                      		push temp
00014d 930f                      		push temp
00014e 9502                      		swap temp		;exemple 3A
00014f 700f                      		andi temp, $0f	;on garde le  3
000150 e0f0                      		ldi r31,high(hexa*2) ;pointe l'addresse le la database dans R0
000151 edea                      		ldi r30,low(hexa*2)	; l'addresse de mmoire;
000152 0fe0                      		add ZL, temp		;augmente l'adresse pour pointer le bon chiffre (r31 et r30 constitue zh et zl)
000153 f408                      		brcc okpasdedepassementq	;(branch if carry est 0) si le carry est a 1 (il y a une retenue) = plus que FF on incrmente donc zh. Sinon il passe et laisse zl normal
000154 95f3                      		inc zh
                                 okpasdedepassementq:
000155 95c8                      		lpm
000156 2d00                      		mov temp,r0
000157 df71                      		rcall afficheascii	;3 est afficher
000158 910f                      		pop temp
000159 700f                      		andi temp, $0f	;on garde le  3
00015a e0f0                      		ldi r31,high(hexa*2) ;pointe l'addresse le la database dans R0
00015b edea                      		ldi r30,low(hexa*2)	; l'addresse de mmoire;
00015c 0fe0                      		add ZL, temp		;augmente l'adresse pour pointer le bon chiffre (r31 et r30 constitue zl et zh)
00015d f408                      		brcc okpasdedepassement7q	;(branch if carry est 0) si le carry est a 1 (il y a une retenue) = plus que FF on incrmente donc zh. Sinon il passe et laisse zl normal
00015e 95f3                      		inc zh
                                 okpasdedepassement7q:
00015f 95c8                      		lpm
000160 2d00                      		mov temp,r0
000161 df67                      		rcall afficheascii	;3 est afficher
000162 910f                      		pop temp
000163 9508                      		ret
                                 
                                 ;***************************** Led ******************************************
                                 ;Led
                                 WarmingLedPulse:
000164 9820                      		cbi ddrb, 0		;on met la pin du led en entree pas de pull up. Comme ca, c'est le module gps qui drive le led.
000165 9828                      		cbi portb, 0
000166 9508                      		ret
                                 SatLedOn:				;PD7
000167 9a5f                      		sbi portd, 7
000168 9508                      		ret
                                 SatLedOff:
000169 985f                      		cbi portd, 7
00016a 9508                      		ret
                                 CounterLedOn:			;PD6
00016b 9a5e                      		sbi portd, 6
00016c 9508                      		ret
                                 CounterLedOff:
00016d 985e                      		cbi portd, 6
00016e 9508                      		ret
                                 
                                 
                                 .include "math.inc"
                                 
                                 ;********************************************************************************************************
                                 ;********************************************************************************************************
                                 ;********************************************************************************************************
                                 ;*******************************************     Math    ************************************************
                                 ;********************************************************************************************************
                                 ;********************************************************************************************************
                                 ;********************************************************************************************************
                                 ;********************************************************************************************************
                                 ;Math
                                 
                                 mul16: ;Hardware
                                 ;r21:r20 x r23:r22 = r5:r4:r3:r2
00016f 2788                      		clr R24 ; clear for carry operations
000170 9f57                      		mul r21,r23 ; Multiply MSBs
000171 2c40                      		mov r4,R0 ; copy to MSW Result
000172 2c51                      		mov r5,R1
000173 9f46                      		mul r20,r22 ; Multiply LSBs
000174 2c20                      		mov r2,R0 ; copy to LSW Result
000175 2c31                      		mov r3,R1
000176 9f56                      		mul r21,r22 ; Multiply 1M with 2L
000177 0c30                      		add r3,R0 ; Add to Result
000178 1c41                      		adc r4,R1
000179 1e58                      		adc r5,r24 ; add carry
00017a 9f47                      		mul r20,r23 ; Multiply 1L with 2M
00017b 0c30                      		add r3,R0 ; Add to Result
00017c 1c41                      		adc r4,R1
00017d 1e58                      		adc r5,r24
00017e 9508                      		ret
                                 
                                 
                                 
                                 ;***************************************************************************
                                 ;* r23:r22:r21:r20  +  r19:r18:r17:r16  =  r23:r22:r21:r20
00017f 0f40                      Add32:	add	r20,r16	; Addition des octets de poids faible
000180 1f51                      		adc	r21,r17	;
000181 1f62                      		adc	r22,r18	;
000182 1f73                      		adc	r23,r19	; Addition des octets de poids fort avec retenue
000183 9508                      		ret
                                 
                                 ;***************************************************************************
                                 ;*
                                 ;* mul32 - multiplication 32x32 
                                 ;*
                                 ;* r23::r20  x  r19::r16    =  r27::r20
                                 ;*   
                                 ;* r23:r22:r21:r20 x  r19:r18:r17:r16   =  r27:r26:r25:r24:r23:r22:r21:r20
                                 ;*
                                 ;* Nombre de mots		:25
                                 ;* Nombre de  cycles	:464-560
                                 ;* Registre Bas utiliss	:Aucun
                                 ;* Registre Haut utiliss   :13
                                 ;***************************************************************************
000184 2711                      Mul32b: 	clr	r17		;multiplicand is one byte
000185 2722                      Mul32w: 	clr	r18		;		 two bytes
000186 2733                      Mul32t: 	clr	r19		;		 three bytes
000187 27bb                      Mul32:		clr	r27		;clear 4 highest bytes of result
000188 27aa                      			clr	r26		;
000189 2799                      			clr	r25		;
00018a 1b88                      			sub	r24,r24	;and carry
00018b e2c1                      			ldi	r28,33	;init loop counter
00018c 9577                      m32u_loop:	ror	r23		;rotate result and multiplier
00018d 9567                      			ror	r22		;
00018e 9557                      			ror	r21		;
00018f 9547                      			ror	r20		;
000190 95ca                      			dec	r28 	;decrement loop counter
000191 f051                      			breq	Return32u	;if counter zero return
000192 f420                      			brcc	m32u_skip	;if bit 0 of multiplier set
000193 0f80                      			add	r24,r16	;   add multiplicand to result
000194 1f91                      			adc	r25,r17	;
000195 1fa2                      			adc	r26,r18	;
000196 1fb3                      			adc	r27,r19	;
000197 95b7                      m32u_skip:	ror	r27		;shift right result byte 7
000198 95a7                      			ror	r26		;rotate right result
000199 9597                      			ror	r25		;
00019a 9587                      			ror	r24		;
00019b cff0                      			rjmp	m32u_loop	;
00019c 9508                      Return32u:	ret
                                 
                                 
                                 ClrAllRegister:
00019d 2700                      		clr r16
00019e 2711                      		clr r17
00019f 2722                      		clr r18
0001a0 2733                      		clr r19
0001a1 2744                      		clr r20
0001a2 2755                      		clr r21
0001a3 2766                      		clr r22
0001a4 2777                      		clr r23
0001a5 2788                      		clr r24
0001a6 2799                      		clr r25
0001a7 27aa                      		clr r26
0001a8 27bb                      		clr r27
0001a9 27cc                      		clr r28
0001aa 27dd                      		clr r29
0001ab 27ee                      		clr r30
0001ac 27ff                      		clr r31
0001ad 9508                      		ret
                                 
                                 ;*************************************************************************************
                                 ;*************************************************************************************
                                 seconde_tempo:
0001ae 95a8                      		wdr
0001af e472                      		ldi  R23, $42
0001b0 ed86                      LOOP0y:	ldi  R24, $D6
0001b1 ee9b                      LOOP1y:	ldi  R25, $EB
0001b2 959a                      LOOP2y:	dec  R25
0001b3 f7f1                      		brne LOOP2y
0001b4 958a                      		dec  R24
0001b5 f7d9                      		brne LOOP1y
0001b6 957a                      		dec  R23
0001b7 f7c1                      		brne LOOP0y
0001b8 e073                      		ldi  R23, $03
0001b9 957a                      LOOP3y:	dec  R23
0001ba f7f1                      		brne LOOP3y
0001bb 0000                      		nop
0001bc 9508                      		ret
                                 
                                 ;********************************** Clear All Merory ********************************
                                 ClearAllMemory:
0001bd e0f1                      		ldi zh,$1		;load $100 dans z
0001be e0e0                      		ldi zl,00
                                 MemoryClearNext:
0001bf 2700                      		clr temp
0001c0 9301                      		st z+,temp
0001c1 e000                      		ldi r16, $00	;nombre de byte + 1 (clear all memory of atmega 48. (512 bytes)
0001c2 e013                      		ldi r17, $03
0001c3 17e0                      		cp zl, r16
0001c4 07f1                      		cpc zh, r17
0001c5 f7c9                      		brne MemoryClearNext
0001c6 9508                      		ret
                                 
                                 hex2bcdyt:
                                 ;********************************* input Hex r20:r19:r18:r17:r16 outupt bcd r25:r24:r23:r22:r21 
0001c7 27dd                      		clr yh
0001c8 27cc                      		clr yl
0001c9 2755                      		clr r21
0001ca 2766                      		clr r22
0001cb 2777                      		clr r23
0001cc 2788                      		clr r24
0001cd 2799                      		clr r25
0001ce 27aa                      		clr r26
0001cf e2c8                      		ldi yl,$28	;nombre de fois a shifter
                                 again:
0001d0 d00e                      		rcall checkif
0001d1 0f00                      		lsl r16		;on shift tout a gauche.
0001d2 1f11                      		rol r17
0001d3 1f22                      		rol r18
0001d4 1f33                      		rol r19
0001d5 1f44                      		rol r20		
0001d6 1f55                      		rol r21
0001d7 1f66                      		rol r22
0001d8 1f77                      		rol r23
0001d9 1f88                      		rol r24
0001da 1f99                      		rol r25		;ici tout a ete shifter une fois. regandons les 4bits qui depasse ou egale a 5.
0001db 1faa                      		rol r26
0001dc 95ca                      		dec yl
0001dd f791                      		brne again
0001de 9508                      		ret				;done answer in r25:r21
                                 
                                 checkif:
0001df 935f                      		push r21		;r21 est conserver on regarde si plus que 5 par 4 bit
0001e0 705f                      		andi r21,$0f	;on garde les lsb
0001e1 3055                      		cpi r21,$05
0001e2 f010                      		brlo rienafaire
0001e3 5f5d                      		subi r21,-0x03	;plus que 5 on ajoute 3
0001e4 2fd5                      		mov yh, r21		;on garde les 4 lsb dans yh
                                 rienafaire:
0001e5 2fd5                      		mov yh, r21		;on garde les 4 lsb dans yh
0001e6 915f                      		pop r21			; rappel r21	
0001e7 7f50                      		andi r21,$f0	;on garde les msb
0001e8 3550                      		cpi r21, $50	;compare avec 50 pour voir si les 4 msb depasse 5
0001e9 f008                      		brlo rienafaire2
0001ea 5d50                      		subi r21,-0x30	;ajoute 3 au msb
                                 rienafaire2:
0001eb 0f5d                      		add r21, yh
                                 
0001ec 936f                      		push r22		;r21 est conserver on regarde si plus que 5 par 4 bit
0001ed 706f                      		andi r22,$0f	;on garde les lsb
0001ee 3065                      		cpi r22,$05
0001ef f010                      		brlo rienafaire3
0001f0 5f6d                      		subi r22,-0x03	;plus que 5 on ajoute 3
0001f1 2fd6                      		mov yh, r22		;on garde les 4 lsb dans yh
                                 rienafaire3:
0001f2 2fd6                      		mov yh, r22		;on garde les 4 lsb dans yh
0001f3 916f                      		pop r22			; rappel r21	
0001f4 7f60                      		andi r22,$f0	;on garde les msb
0001f5 3560                      		cpi r22, $50	;compare avec 50 pour voir si les 4 msb depasse 5
0001f6 f008                      		brlo rienafaire4
0001f7 5d60                      		subi r22,-0x30	;ajoute 3 au msb
                                 rienafaire4:
0001f8 0f6d                      		add r22, yh
                                 
0001f9 937f                      		push r23		;r21 est conserver on regarde si plus que 5 par 4 bit
0001fa 707f                      		andi r23,$0f	;on garde les lsb
0001fb 3075                      		cpi r23,$05
0001fc f010                      		brlo rienafaire5
0001fd 5f7d                      		subi r23,-0x03	;plus que 5 on ajoute 3
0001fe 2fd7                      		mov yh, r23		;on garde les 4 lsb dans yh
                                 rienafaire5:
0001ff 2fd7                      		mov yh, r23		;on garde les 4 lsb dans yh
000200 917f                      		pop r23			; rappel r21	
000201 7f70                      		andi r23,$f0	;on garde les msb
000202 3570                      		cpi r23, $50	;compare avec 50 pour voir si les 4 msb depasse 5
000203 f008                      		brlo rienafaire6
000204 5d70                      		subi r23,-0x30	;ajoute 3 au msb
                                 rienafaire6:
000205 0f7d                      		add r23, yh
                                 
000206 938f                      		push r24		;r21 est conserver on regarde si plus que 5 par 4 bit
000207 708f                      		andi r24,$0f	;on garde les lsb
000208 3085                      		cpi r24,$05
000209 f010                      		brlo rienafaire7
00020a 5f8d                      		subi r24,-0x03	;plus que 5 on ajoute 3
00020b 2fd8                      		mov yh, r24		;on garde les 4 lsb dans yh
                                 rienafaire7:
00020c 2fd8                      		mov yh, r24		;on garde les 4 lsb dans yh
00020d 918f                      		pop r24			; rappel r21	
00020e 7f80                      		andi r24,$f0	;on garde les msb
00020f 3580                      		cpi r24, $50	;compare avec 50 pour voir si les 4 msb depasse 5
000210 f008                      		brlo rienafaire8
000211 5d80                      		subi r24,-0x30	;ajoute 3 au msb
                                 rienafaire8:
000212 0f8d                      		add r24, yh
                                 	
000213 939f                      		push r25		;r21 est conserver on regarde si plus que 5 par 4 bit
000214 709f                      		andi r25,$0f	;on garde les lsb
000215 3095                      		cpi r25,$05
000216 f010                      		brlo rienafaire9
000217 5f9d                      		subi r25,-0x03	;plus que 5 on ajoute 3
000218 2fd9                      		mov yh, r25		;on garde les 4 lsb dans yh
                                 rienafaire9:
000219 2fd9                      		mov yh, r25		;on garde les 4 lsb dans yh
00021a 919f                      		pop r25			; rappel r21	
00021b 7f90                      		andi r25,$f0	;on garde les msb
00021c 3590                      		cpi r25, $50	;compare avec 50 pour voir si les 4 msb depasse 5
00021d f008                      		brlo rienafaire10
00021e 5d90                      		subi r25,-0x30	;ajoute 3 au msb
                                 rienafaire10:
00021f 0f9d                      		add r25, yh
                                 		
000220 93af                      		push r26		;r21 est conserver on regarde si plus que 5 par 4 bit
000221 70af                      		andi r26,$0f	;on garde les lsb
000222 30a5                      		cpi r26,$05
000223 f010                      		brlo rienafaire11
000224 5fad                      		subi r26,-0x03	;plus que 5 on ajoute 3
000225 2fda                      		mov yh, r26		;on garde les 4 lsb dans yh
                                 rienafaire11:
000226 2fda                      		mov yh, r26		;on garde les 4 lsb dans yh
000227 91af                      		pop r26			; rappel r21	
000228 7fa0                      		andi r26,$f0	;on garde les msb
000229 35a0                      		cpi r26, $50	;compare avec 50 pour voir si les 4 msb depasse 5
00022a f008                      		brlo rienafaire12
00022b 5da0                      		subi r26,-0x30	;ajoute 3 au msb
                                 rienafaire12:
00022c 0fad                      		add r26, yh
00022d 9508                      		ret
                                 	
                                 	
                                 ;***************************************************************************
                                 ;*
                                 ;* Div32  - Division 32/32 
                                 ;*
                                 ;* r23::r20 	/ 	r19::r16 = (r23::r20) (r27::r24)
                                 ;*    dividende		/	   diviseur 	       rsultat 	 :    	 reste
                                 ;*  r23r22r21r20         r19r18r17r16    	 r23r22r21r20	      r27r26r25r24
                                 ;*
                                 ;* Nombre de mots		:33
                                 ;* Nombre de  cycles	:158/198
                                 ;* Registre Bas utiliss	:0 
                                 ;* Registre Haut utiliss  	:8 
                                 ;*
                                 ;***************************************************************************
                                 
00022e 2711                      Div32b: clr	r17		;divisor is one byte
00022f 2722                      Div32w: clr	r18		;	    two bytes
000230 2733                      Div32t: clr	r19		;	    three bytes
000231 2788                      Div32:	clr	r24	;clear 4 lower remainde byte
000232 2799                      		clr	r25	;
000233 27aa                      		clr	r26	;
000234 1bbb                      		sub	r27,r27;and carry
000235 e2c1                      		ldi	r28,33	;init loop counter
000236 1f44                      d32u_loop: rol	r20		;shift left dividend
000237 1f55                      		rol	r21		;
000238 1f66                      		rol	r22		;
000239 1f77                      		rol	r23		;
00023a 95ca                      		dec	r28 	;decrement loop counter
00023b f071                      		breq Com32		;if counter zero invert result
00023c 1f88                      		rol	r24	;shift dividend into remainder
00023d 1f99                      		rol	r25	;
00023e 1faa                      		rol	r26	;
00023f 1fbb                      		rol	r27	;
000240 1b80                      		sub	r24,r16 ;remainder = remainder - divisor
000241 0b91                      		sbc	r25,r17 ;
000242 0ba2                      		sbc	r26,r18 ;
000243 0bb3                      		sbc	r27,r19 ;
000244 f788                      		brcc d32u_loop	;clear carry to be shifted into res
000245 0f80                      		add	r24,r16 ;if result negative
000246 1f91                      		adc	r25,r17 ;   restore remainder
000247 1fa2                      		adc	r26,r18 ;
000248 1fb3                      		adc	r27,r19 ;
000249 cfec                      		rjmp d32u_loop	;   set carry to be shifted into res
00024a 9540                      Com32:	com	r20		;	&
00024b 9550                      		com	r21		;   (com result)
00024c 9560                      		com	r22		;
00024d 9570                      		com	r23		;   return set carry after com
00024e 9508                      		ret
                                 .include "eeprom.asm"
                                 
                                 ;xxxxxxxxxxxxxxxxxxxxxxxxxxxxxxxx ECR01 xxxxxxxxxxxxxxxxxxxxxxxxxxxxxxxx
                                 ; sous programme d'criture dans l'eeprom  l'adresse $00
                                 ;ecris ce qui se retrouve dans pwmphase6h, 6l
                                 eepromw:
                                 ecr01:	
00024f 99f9                      		sbic EECR,EEPE			; vrifie si EEWE=0 
000250 cffe                      		rjmp ecr01
000251 2711                      		clr temp2				;met l'adresse 00 dans EEarl
000252 bd11                      		out EEARL, temp2		;va commencer a crire a l'adresse 0 dans le eeprom
000253 bd12                      		out EEARH, temp2
000254 e0f1                      		ldi	ZH,high(pwmphase6h)	;met l'adresse que pointe pwm6h dans z
000255 e2eb                      		ldi	ZL,low(pwmphase6h)	;init Z-pointer
                                 ram2eeprom:
000256 9101                      		ld	temp, Z+			;load la valeur contenu dans la memoire que pointe Z soit pwmphase6h et incrmente si pour plusieur bytes.
000257 bd00                      		out EEDR, TEMP
000258 e004                      		ldi temp, $04
000259 bb0f                      		out eecr, temp
00025a 9afa                      		sbi EECR, EEMPE
00025b 9af9                      		sbi EECR, EEPE
                                 ecr02:
00025c 99f9                      		sbic EECR, EEPE			;vrifie si EEWE=0 (criture ffectue)
00025d cffe                      		rjmp ecr02
00025e 9513                      		inc temp2
00025f bd11                      		out EEARL, temp2		;je ne m'occupe pas de eearh ici car on ne depasse pas ff
000260 3012                      		cpi temp2, $02			;ici mettre la valeur du nombre de byte + 1
000261 f7a1                      		brne ram2eeprom
000262 2711                      		clr temp2
000263 9508                      		ret
                                 
                                 ;ecris la frequence_1 a l'adresse de eeprompointer. Elle commence a 2
                                 eepromwritebytes:
                                 ecr01q:	
000264 99f9                      		sbic EECR,EEPE		; vrifie si EEWE=0 
000265 cffe                      		rjmp ecr01q
000266 2711                      		clr temp2
000267 9100 0134                 		lds temp, eeprompointer	;charge l'adresse de eeprom qu'on est rendu on commence a 2 car 0 et 1 sont utilis
000269 3f0f                      		cpi temp, $ff			;regarde si on a attein la fin du eeprom
00026a f419                      		brne onyva
00026b e002                      		ldi temp,$02
00026c 9300 0134                 		sts eeprompointer,temp
                                 onyva:
00026e 2711                      		clr temp2
00026f bd12                      		out EEARH, temp2
000270 bd01                      		out EEARL, temp  ;va commencer a crire a l'adresse eeprompointer. 2 par default
000271 e0f1                      		ldi	ZH,high(frequence_1)	; met l'adresse que pointe frequence_1 dans z
000272 e0e9                      		ldi	ZL,low(frequence_1)	;init Z-pointer
                                 ram2eepromq:
000273 9101                      		ld	temp,Z+	;load temp (r16) avec le contenu dans $134 et incrmente si pour plusieur bytes.
000274 bd00                      		out EEDR,TEMP
000275 e004                      		ldi temp, $04
000276 bb0f                      		out eecr, temp
000277 9afa                      		sbi EECR,EEMPE
000278 9af9                      		sbi EECR,EEPE
                                 ecr02q:
000279 99f9                      		sbic EECR,EEPE		;vrifie si EEWE=0 (criture ffectue)
00027a cffe                      		rjmp ecr02q
00027b 9513                      		inc temp2
00027c bd11                      		out EEARL, temp2
00027d 3011                      		cpi temp2, $01	;ici mettre la valeur du nombre de byte + 1
00027e f7a1                      		brne ram2eepromq
00027f 9100 0134                 		lds temp, eeprompointer	
000281 9503                      		inc temp
000282 9300 0134                 		sts eeprompointer, temp	;4 valeur a l'heure. j'en ai pour 62 heure avant de remplir le eeprom
000284 9508                      		ret
                                 
                                 ;xxxxxxxxxxxxxxxxxxxxxxxxxxxxxxxx eepromr: xxxxxxxxxxxxxxxxxxxxxxxxxxxxxxxx
                                 ;lit le eeprom de l'addrres 0 et 1 et l'cris dans pwmphase6h et pwmphase6l 
                                 eepromr:
000285 99f9                      		sbic EECR,EEPE		; vrifie si EEWE=0 
000286 cffe                      		rjmp eepromr
000287 27aa                      		clr xl
000288 27bb                      		clr xh	
000289 bda1                      		out EEARL, xl  ;va commencer a lire  l'adresse 0 dans le eeprom
00028a bdb2                      		out EEARH, xh
00028b e0f1                      		ldi	ZH,high(pwmphase6h)	; met l'adresse ou mettre la valeur lu dans z	(12b)
00028c e2eb                      		ldi	ZL,low(pwmphase6h)	;init Z-pointer
                                 lir01:
00028d 9af8                      		sbi EECR,EERE		; validation de lecture avec EERE=1
                                 lir02:				; remise  0 Watchdog
00028e 99f8                      		sbic	EECR,EERE	; attendre que EERE=0
00028f cffe                      		rjmp	lir02	
000290 b500                      		in	temp ,EEDR	; transfert de la donne lu dans temp
000291 9301                      		st	Z+, temp	;store la valeur de temp dans memoire pwmphase6h et incremente z+ ($12c) 
000292 9611                      		adiw xh:xl, 1
000293 bda1                      		out EEARL, xl
000294 bdb2                      		out EEARH, xh
000295 30a2                      		cpi xl, $02	;mettre ici le nombre de byte a lire
000296 f7b1                      		brne lir01
000297 9508                      		ret
                                 
                                 ; efface 256 bytes du eeprom
                                 effaceeeprom:
000298 27bb                      		clr xh	;commence avec adresse 0
000299 27aa                      		clr xl
                                 ; Wait for completion of previous write
                                 effaceencore:
00029a 99f9                      		sbic EECR,EEPE
00029b cffe                      		rjmp effaceencore
                                 ; Set up address (xh:xl) in address register
00029c bdb2                      		out EEARH, xh
00029d bda1                      		out EEARL, xl
                                 ; Write data (r16) to Data Register
00029e ef0f                      		ser r16
00029f bd00                      		out EEDR,r16
                                 ; Write logical one to EEMPE
0002a0 9afa                      		sbi EECR,EEMPE
                                 ; Start eeprom write by setting EEPE
0002a1 9af9                      		sbi EECR,EEPE
0002a2 95a3                      		inc xl			;ici on efface seulement le 256 bytes du eeprom. Xl passe de 0 a FF et deborde a 100 donc xl vaut un moment donn 0. on a fait le tour.
0002a3 f7b1                      		brne effaceencore
0002a4 9508                      		ret
                                 
                                 affiche_eeprom:
                                 		;ici on affiche la valeur du pwm et les derniere frequence trouv. Bref l'eeprom
0002a5 ddfa                      		rcall videecran
0002a6 de00                      		rcall posi1
0002a7 e0f0                      		ldi r31,high(data40*2)  		;"Last Frequency="   
0002a8 ece8                      		ldi r30,low(data40*2)		
0002a9 de5f                      		rcall message
0002aa de91                      		rcall tempo5s
                                 ;page 2 on ecris les dernieres frequences de la plus recente a la plus vieille
0002ab ddf4                      		rcall videecran
0002ac ddfa                      		rcall posi1
0002ad d1ec                      		rcall nextline
                                 eepromr3:
0002ae 99f9                      		sbic EECR,EEPE		; vrifie si EEWE=0 
0002af cffe                      		rjmp eepromr3
0002b0 27cc                      		clr yl
0002b1 91a0 0134                 		lds xl, eeprompointer	;on charge le pointeur pour savoir ou il faut lire dans le eeprom
0002b3 95aa                      		dec xl					;on doit soustraire un pour lire l'adresse point -1 car l.adresse point na pas t cris encore.
0002b4 27bb                      		clr xh
0002b5 30a1                      		cpi xl, $01	;
0002b6 f109                      		breq Debut_du_eeprom_atteint ;ya pas encore de donn en fait.
0002b7 bda1                      		out EEARL, xl  ;va commencer a lire  l'adresse du pointeur
0002b8 bdb2                      		out EEARH, xh
                                 lir01a:
0002b9 9af8                      		sbi EECR,EERE		; validation de lecture avec EERE=1
                                 lir02a:				; remise  0 Watchdog
0002ba 99f8                      		sbic	EECR,EERE	; attendre que EERE=0
0002bb cffe                      		rjmp	lir02a	
0002bc b500                      		in	temp ,EEDR	; transfert de la donne lu dans temp
0002bd de8e                      		rcall affichememoire
0002be d1e6                      		rcall affichememoireserial
0002bf 95aa                      		dec xl
0002c0 bda1                      		out EEARL, xl
0002c1 30a1                      		cpi xl, $01	;
0002c2 f0a9                      		breq Debut_du_eeprom_atteint
0002c3 95c3                      		inc yl
0002c4 30c8                      		cpi yl, 8
0002c5 f799                      		brne lir01a
                                 ;ligne2
0002c6 27cc                      		clr yl
0002c7 dde6                      		rcall posi2
                                 eepromr4:
0002c8 99f9                      		sbic EECR,EEPE		; vrifie si EEWE=0 
0002c9 cffe                      		rjmp eepromr4
0002ca 27cc                      		clr yl
                                 lir01b:
0002cb 9af8                      		sbi EECR,EERE		; validation de lecture avec EERE=1
                                 lir02b:				; remise  0 Watchdog
0002cc 99f8                      		sbic	EECR,EERE	; attendre que EERE=0
0002cd cffe                      		rjmp	lir02b	
0002ce b500                      		in	temp ,EEDR	; transfert de la donne lu dans temp
0002cf de7c                      		rcall affichememoire
0002d0 d1d4                      		rcall affichememoireserial
0002d1 95aa                      		dec xl
0002d2 bda1                      		out EEARL, xl
0002d3 30a1                      		cpi xl, $01	;
0002d4 f019                      		breq Debut_du_eeprom_atteint
0002d5 95c3                      		inc yl
0002d6 30c8                      		cpi yl, 8
0002d7 f799                      		brne lir01b
                                 Debut_du_eeprom_atteint:
0002d8 940e 049a                 		call nextline
0002da de61                      		rcall tempo5s
                                 .include "serial.asm"
0002db 9508                      
                                 ;
                                 ;Serial routine
                                 
                                 .equ   baud=9600		;Baud rate 
                                 .equ   fosc=10000000	;Crystal frequency 
                                 
                                 USART_Init:
0002dc b103                      		in temp, pinb	;check si jumper sur pb3. Si oui on est a 4800 au lieu de 9600
0002dd 7008                      		andi temp, 0b00001000
0002de 3000                      		cpi temp, 0
0002df f019                      		breq onesta4800
0002e0 e010                      		ldi r17, high(fosc/(16*baud)-1) 
0002e1 e400                      		ldi r16, low(fosc/(16*baud)-1) 
0002e2 c002                      		rjmp setbaudrate 
                                  onesta4800:
0002e3 e010                      		ldi r17, high(fosc/(16*4800)-1) 
0002e4 e801                      		ldi r16, low(fosc/(16*4800)-1)
                                 setbaudrate:    
0002e5 9310 00c5                 		STORE UBRR0H, r17 
0002e7 9300 00c4                 		STORE UBRR0L, r16 
0002e9 e108                      		ldi r16, (1<<RXEN0)|(1<<TXEN0) |(0<<RXCIE0)	; Enable receiver and transmitter, interrupt rx disabled
0002ea 9300 00c1                 		STORE UCSR0B,r16 
0002ec e006                      		ldi r16, (0<<USBS0)|(3<<UCSZ00)				; Set frame format: 8data, 1stop bit 
0002ed 9300 00c2                 		STORE UCSR0C,r16
0002ef e002                      		ldi temp, $02
0002f0 940e 02ff                 		call tx
0002f2 940e 049a                 		call nextline
0002f4 e003                      		ldi temp, $03
0002f5 940e 02ff                 		call tx
0002f7 9508                      		ret 
                                 
                                 RX: ; Wait for data to be received
0002f8 9110 00c0                 		load r17,UCSR0A		 
0002fa ff17                      		sbrs r17,RXC0			;This flag bit is set when there are unread data in the receive buffer and cleared when the receive buffer is empty. 1 = unread
0002fb cffc                      		rjmp RX					;donc loop ici jusqu'au temps que rxc0 vaut 1
0002fc 9100 00c6                 		lds r16, UDR0			; Get and return received data from buffer 
0002fe 9508                      		ret 
                                 
                                 TX: ; Wait for empty transmit buffer 
0002ff 9110 00c0                 		load r17,UCSR0A         ;Load into R17 from SRAM UCSR0A. The UDRE0 Flag indicates if the transmit buffer (UDR0) is ready to receive new data. If UDRE0 is one,
000301 ff15                      		sbrs r17,UDRE0         ;the buffer is empty, and therefore ready to be written.. Skip next instruction If Bit Register is set 
000302 cffc                      		rjmp TX 
000303 9300 00c6                 		STORE UDR0,r16		   ; Put data (r0) into buffer, sends the data 
000305 9508                      		ret 
                                 
                                 checkgpgga:	;$GPGGA pour neo 6m MAIS GNGGA sur neo 8M Donc je regarde pour seulement GGA
000306 95a8                      		wdr
000307 dff0                      		rcall rx
000308 3407                      		cpi temp, $47	;G
000309 f7e1                      		brne checkgpgga
00030a dfed                      		rcall rx
00030b 3407                      		cpi temp, $47	;G
00030c f7c9                      		brne checkgpgga
00030d dfea                      		rcall rx
00030e 3401                      		cpi temp, $41	;A
00030f f7b1                      		brne checkgpgga
                                 ;ici on a detecter $GPGGA on doit rammaser le nombre de satellite
000310 2722                      		clr r18
                                 kjkj:		;on compte 7 virgules. Ensuite on lit le nombre de satellites.
000311 dfe6                      		rcall rx
000312 320c                      		cpi temp, $2C	;,
000313 f7e9                      		brne kjkj
000314 9523                      		inc r18
000315 3027                      		cpi r18, $07
000316 f7d1                      		brne kjkj		;compte 7 virgules
                                 ;ici s'en vienne les 2 nombres ascii. Exemple 31, 32 pour 12.
000317 dfe0                      		rcall rx
000318 9300 0136                 		sts satelliteh, temp
00031a dfdd                      		rcall rx
00031b 9300 0137                 		sts satellitel, temp		;ici le nombre de satellites est en ascii dans satelliteh:satellitel  exemple 31:32 pour afficher 12.
00031d 9508                      		ret
                                 
                                 ;dois comparer si on a plus que 3 sat et allumer le led sinon le fermer..
00031e 9100 0136                 		lds temp, satelliteh
000320 5300                      		subi temp, $30
000321 0f00                      		lsl temp
000322 0f00                      		lsl temp
000323 0f00                      		lsl temp
000324 0f00                      		lsl temp
000325 9110 0137                 		lds r17, satellitel
000327 5310                      		subi r17, $30
000328 0f01                      		add temp, r17
000329 3003                      		cpi temp, $3
00032a f424                      		brge onallumeleled2
                                 		;sinon on ferme le led
00032b b10b                      		load temp, portd
00032c 770f                      		cbr temp, 0b10000000
00032d b90b                      		out portd, temp
00032e 9508                      		ret
                                 onallumeleled2:
00032f b10b                      		load temp, portd
000330 6800                      		sbr temp, 0b10000000
000331 b90b                      		out portd, temp
000332 9508                      		ret
                                 
                                 
                                 affichesatellite2:
000333 9100 00c0                 		load r16, UCSR0A	;regarde si ya de quoi qui a t recu par le serial
000335 ff07                      		sbrs r16, RXC0
000336 9508                      		ret					;rxc0 est a 0 on a rien recu
000337 dfce                      		rcall checkgpgga	;on ramasse le nombre de satellite
000338 dd7c                      		rcall posisat
000339 e503                      		ldi temp, $53		; S
00033a dd8e                      		rcall afficheascii
00033b 940e 02ff                 		call tx
00033d e30d                      		ldi temp, $3d		; =
00033e dd8a                      		rcall afficheascii
00033f 940e 02ff                 		call tx
000341 9100 0136                 		lds temp, satelliteh
000343 dd85                      		rcall afficheascii
000344 940e 02ff                 		call tx
000346 9100 0137                 		lds temp, satellitel
000348 dd80                      		rcall afficheascii
000349 940e 02ff                 		call tx
                                 
                                 ;dois comparer si on a plus que 3 sat et allumer le led sinon le fermer..
00034b 9100 0136                 		lds temp, satelliteh
00034d 5300                      		subi temp, $30
00034e 0f00                      		lsl temp
00034f 0f00                      		lsl temp
000350 0f00                      		lsl temp
000351 0f00                      		lsl temp
000352 9110 0137                 		lds r17, satellitel
000354 5310                      		subi r17, $30
000355 0f01                      		add temp, r17
000356 3003                      		cpi temp, $3
000357 f414                      		brge onallumeleled22
                                 		;sinon on ferme le led
000358 985f                      		cbi portd, 7
000359 9508                      		ret
                                 onallumeleled22:
00035a 9a5f                      		sbi portd, 7
00035b 9508                      		ret
                                 
                                 ;****************************************************************************************************************************************************************************************
                                 ;****************************************************************************************************************************************************************************************
                                 ;****************************************************************************************************************************************************************************************
                                 ;*********************************************************************************************************************
                                 ;$GPGGA,hhmmss.ss,llll.ll,a,yyyyy.yy,a,x,xx,x.x,x.x,M,x.x,M,x.x,xxxx*hh
                                 afficheheureposition:
                                 ;affiche heure pour 10 secondes
00035c dd43                      		rcall videecran
00035d 9100 00c0                 		load r16, UCSR0A	;regarde si ya de quoi qui a t recu par le serial
00035f ff07                      		sbrs r16, RXC0		;skip if bit in register is set
000360 9508                      		ret					;rxc0 est a 0 on a rien recu pas de signal
000361 e0aa                      		ldi r26, 10
                                 afseconde:
000362 d096                      		rcall checkgpggahp	;ramasse les valeur (heure)
000363 dd43                      		rcall posi1
000364 d135                      		rcall nextline
000365 9100 0220                 		lds temp, heureh
000367 dd61                      		rcall afficheascii
000368 940e 02ff                 		call tx
00036a 9100 0221                 		lds temp, heurel
00036c dd5c                      		rcall afficheascii
00036d 940e 02ff                 		call tx
00036f e30a                      		ldi temp, $3A		; :
000370 dd58                      		rcall afficheascii
000371 940e 02ff                 		call tx
000373 9100 0222                 		lds temp, minuteh
000375 dd53                      		rcall afficheascii
000376 940e 02ff                 		call tx
000378 9100 0223                 		lds temp, minutel
00037a dd4e                      		rcall afficheascii
00037b 940e 02ff                 		call tx
00037d e30a                      		ldi temp, $3A		; :
00037e dd4a                      		rcall afficheascii
00037f 940e 02ff                 		call tx
000381 9100 0224                 		lds temp, secondeh
000383 dd45                      		rcall afficheascii
000384 940e 02ff                 		call tx
000386 9100 0225                 		lds temp, secondel
000388 dd40                      		rcall afficheascii
000389 940e 02ff                 		call tx
00038b dd30                      		rcall espace
00038c 940e 049f                 		call espaceserial
00038e e505                      		ldi temp, $55	;U
00038f dd39                      		rcall afficheascii
000390 940e 02ff                 		call tx
000392 e504                      		ldi temp, $54	;T
000393 dd35                      		rcall afficheascii
000394 940e 02ff                 		call tx
000396 e403                      		ldi temp, $43	;C
000397 dd31                      		rcall afficheascii
000398 940e 02ff                 		call tx
                                 attendprochaineseconde:
00039a 9100 00c0                 		load r16, UCSR0A	;regarde si ya de quoi qui a t recu par le serial
00039c ff07                      		sbrs r16, RXC0		;skip if bit in register is set
00039d cffc                      		rjmp attendprochaineseconde				;rxc0 est a 0 on a rien recu
00039e 95aa                      		dec r26
00039f f611                      		brne afseconde
                                 ;le temps vien d'etre afficher 10 seconde maintenant latitude et longitude
0003a0 dcff                      		rcall videecran
0003a1 940e 049a                 		call nextline
0003a3 e0aa                      		ldi r26, 10 ;pour 10 seconde
                                 debutdeaffichagelatitudelongitude:
                                 ;affiche position pour 10 secondes
0003a4 d078                      		rcall ramassegga	;ramasse la string gga au complet incluant l'heure
0003a5 dd01                      		rcall posi1
0003a6 d0f3                      		rcall nextline
0003a7 e0f2                      		ldi zh, high(gga)	;adresse de RAM $240 dans Z
0003a8 e4e0                      		ldi Zl, low(gga)
0003a9 e022                      		ldi r18, 2	;on passe 2 virgule pour se rendre a la latitude. On passe par dessus l'heure
                                 aflatitude:	
0003aa 9001                      		ld	r0, z+			;charge r0 avec le contenu de l'adresse que pointe z
0003ab 2d00                      		mov temp, r0	;
0003ac 320c                      		cpi temp, $2c	;compare avec virgule
0003ad f7e1                      		brne aflatitude
0003ae 952a                      		dec r18
0003af f7d1                      		brne aflatitude
                                 ;debut latitude
0003b0 9001                      		ld	r0, z+			;4
0003b1 2d00                      		mov temp, r0	;
0003b2 dd16                      		rcall afficheascii
0003b3 940e 02ff                 		call tx
0003b5 9001                      		ld	r0, z+			;6
0003b6 2d00                      		mov temp, r0	;
0003b7 dd11                      		rcall afficheascii
0003b8 940e 02ff                 		call tx
0003ba e207                      		ldi temp, $27	;`
0003bb dd0d                      		rcall afficheascii
0003bc 940e 02ff                 		call tx
                                 suitelatitude:
0003be 9001                      		ld	r0, z+			;
0003bf 2d00                      		mov temp, r0	;compare avec virgule.... pourquoi ? parce que dans diffrent module il n'y a pas toujours le meme nombres de chiffre apres le point.
0003c0 320c                      		cpi temp, $2c ;,
0003c1 f021                      		breq emisphere
0003c2 dd06                      		rcall afficheascii
0003c3 940e 02ff                 		call tx
0003c5 cff8                      		rjmp suitelatitude
                                 emisphere:
0003c6 dcf5                      		rcall espace
0003c7 d0d7                      		rcall espaceserial
0003c8 9001                      		ld	r0, z+			;on ecris N ou S
0003c9 2d00                      		mov temp, r0	;
0003ca dcfe                      		rcall afficheascii
0003cb 940e 02ff                 		call tx
0003cd dce0                      		rcall posi2
0003ce 940e 049a                 		call nextline
0003d0 9001                      		ld	r0, z+		;passe virgule
0003d1 9001                      		ld	r0, z+	
0003d2 2d00                      		mov temp, r0	;
0003d3 dcf5                      		rcall afficheascii		;0
0003d4 940e 02ff                 		call tx
0003d6 9001                      		ld	r0, z+	
0003d7 2d00                      		mov temp, r0
0003d8 dcf0                      		rcall afficheascii		;7
0003d9 940e 02ff                 		call tx
0003db 9001                      		ld	r0, z+	
0003dc 2d00                      		mov temp, r0
0003dd dceb                      		rcall afficheascii		;2
0003de 940e 02ff                 		call tx
0003e0 e207                      		ldi temp, $27			;`
0003e1 dce7                      		rcall afficheascii
0003e2 940e 02ff                 		call tx	
                                 nextline2:
0003e4 9001                      		ld	r0, z+				;on affiche le reste jusqua la virgule.
0003e5 2d00                      		mov temp, r0
0003e6 320c                      		cpi temp, $2c
0003e7 f021                      		breq nextlinefini
0003e8 dce0                      		rcall afficheascii
0003e9 940e 02ff                 		call tx
0003eb cff8                      		rjmp nextline2
                                 nextlinefini:
0003ec dccf                      		rcall espace
0003ed d0b1                      		rcall espaceserial
0003ee 9001                      		ld	r0, z+				;W ou E
0003ef 2d00                      		mov temp, r0
0003f0 dcd8                      		rcall afficheascii
0003f1 940e 02ff                 		call tx
0003f3 940e 049a                 		call nextline
0003f5 95aa                      		dec r26					;decremene 26 et on recommence sinon fini
0003f6 f409                      		brne debutdeaffichagelatitudelongitude2
0003f7 9508                      		ret
                                 
                                 debutdeaffichagelatitudelongitude2:
0003f8 cfab                      	rjmp debutdeaffichagelatitudelongitude
                                 
                                 ;****************************************************************************************************************************************************************************************
                                 ;****************************************************************************************************************************************************************************************
                                 ;****************************************************************************************************************************************************************************************
                                 checkgpggahp:	;$GPGGA pour neo 6m MAIS GNGGA sur neo 8M Donc je regarde pour seulement GGA
                                 ;checkgga heure position et store dans memoire heure et position
                                 ;$xxGGA,123519,4807.038,N,01131.000,E,1,08,0.9,545.4,M,46.9,M,,*47
0003f9 95a8                      		wdr
0003fa defd                      		rcall rx
0003fb 3407                      		cpi temp, $47	;G
0003fc f7e1                      		brne checkgpggahp
0003fd defa                      		rcall rx
0003fe 3407                      		cpi temp, $47	;G
0003ff f7c9                      		brne checkgpggahp
000400 def7                      		rcall rx
000401 3401                      		cpi temp, $41	;A
000402 f7b1                      		brne checkgpggahp
                                 		;ici on a detecter $GPGGA on doit rammaser le nombre de satellite
000403 2722                      		clr r18
                                 kjkj1:		;on compte 1 virgules.
000404 def3                      		rcall rx
000405 320c                      		cpi temp, $2C	;,
000406 f7e9                      		brne kjkj1
000407 9523                      		inc r18
000408 3021                      		cpi r18, $01
000409 f7d1                      		brne kjkj1		;compte 1 virgules
                                 		;ici s'en vienne les 6 nombres ascii. Exemple 31, 32 pour 12.
00040a deed                      		rcall rx
00040b 9300 0220                 		sts heureh, temp
00040d deea                      		rcall rx
00040e 9300 0221                 		sts heurel, temp		;
000410 dee7                      		rcall rx
000411 9300 0222                 		sts minuteh, temp
000413 dee4                      		rcall rx
000414 9300 0223                 		sts minutel, temp		;
000416 dee1                      		rcall rx
000417 9300 0224                 		sts secondeh, temp
000419 dede                      		rcall rx
00041a 9300 0225                 		sts secondel, temp		;
00041c 9508                      		ret
                                 
                                 
                                 ;****************************************************************************************************************************************************************************************
                                 ;****************************************************************************************************************************************************************************************
                                 ;****************************************************************************************************************************************************************************************
                                 ramassegga:	;$ramasse toute la string de gga. et la met dans $240 +
00041d 95a8                      		wdr
00041e ded9                      		rcall rx
00041f 3407                      		cpi temp, $47	;G
000420 f7e1                      		brne ramassegga
000421 ded6                      		rcall rx
000422 3407                      		cpi temp, $47	;G
000423 f7c9                      		brne ramassegga
000424 ded3                      		rcall rx
000425 3401                      		cpi temp, $41	;A
000426 f7b1                      		brne ramassegga
                                 		;	rcall rx ;passe la virgule
                                 		;ici on a detecter $GPGGA on doit rammaser la string
000427 e0f2                      		ldi zh, high(gga)		;adresse de RAM $240 dans Z
000428 e4e0                      		ldi Zl, low(gga)
                                 prochainbytes:	
000429 dece                      		rcall rx
00042a 2e00                      		mov r0,temp
00042b 9201                      		st z+, R0							;R0 dans ce que pointe Z ici $240 en montant
00042c 3204                      		cpi temp, $24			;regarde si rx recoit $. Si oui = veut dire qu'on a ramasser gga au complet
00042d f009                      		breq donegga
00042e cffa                      		rjmp prochainbytes
                                 donegga:
00042f 9508                      		ret
                                 ;		46`19.81427 m. N
                                 
                                 ;***************************************************************************************
                                 SendSpeed1000serial:
000430 9100 0122                 		lds temp, frebcd6		;j'affiche:        1 00 00 00 0.0 00
000432 3000                      		cpi temp, 0
000433 f411                      		brne aldo1000serial				;si frebcd6 = 0 on affiche un espace a place
000434 d06a                      		rcall espaceserial
000435 c003                      		rjmp yahoo1000serial
                                 aldo1000serial:
000436 9100 0122                 		lds temp, frebcd6
000438 d051                      		rcall affichenombreSeriallow
                                 yahoo1000serial:
000439 9100 0123                 		lds temp, frebcd5
00043b d03f                      		rcall affichenombreSerial
00043c 9100 0124                 		lds temp, frebcd4
00043e d03c                      		rcall affichenombreSerial
00043f 9100 0125                 		lds temp, frebcd3
000441 d039                      		rcall affichenombreSerial
000442 9100 0126                 		lds temp, frebcd2
000444 d040                      		rcall affichenombreSerialhigh
000445 e20e                      		ldi temp, $2e			;.
000446 deb8                      		rcall tx
000447 9100 0126                 		lds temp, frebcd2
000449 d040                      		rcall affichenombreSeriallow
00044a 9100 0127                 		lds temp, frebcd1
00044c d02e                      		rcall affichenombreSerial
00044d d051                      		rcall espaceserial
00044e e408                      		ldi temp, $48			;H
00044f deaf                      		rcall tx
000450 e70a                      		ldi temp, $7a
000451 dead                      		rcall tx				;z
000452 940e 049a                 		call nextline
000454 9508                      		ret
                                 ;***************************************************************************************
                                 SendSpeed10000serial:
000455 9100 0122                 		lds temp, frebcd6 ;10
000457 7f00                      		andi temp, $F0 ;00
000458 3000                      		cpi temp, 0
000459 f411                      		brne aldoserial
00045a d044                      		rcall espaceserial						
00045b c003                      		rjmp yahooserial
                                 aldoserial:
00045c 9100 0122                 		lds temp, frebcd6	
00045e d026                      		rcall affichenombreSerialhigh
                                 yahooserial:
00045f 9100 0122                 		lds temp, frebcd6	
000461 d028                      		rcall affichenombreSeriallow
000462 9100 0123                 		lds temp, frebcd5
000464 d016                      		rcall affichenombreSerial
000465 9100 0124                 		lds temp, frebcd4
000467 d013                      		rcall affichenombreSerial
000468 9100 0125                 		lds temp, frebcd3
00046a d010                      		rcall affichenombreSerial
00046b e20e                      		ldi temp, $2e			;.
00046c de92                      		rcall tx
00046d 9100 0126                 		lds temp, frebcd2
00046f d00b                      		rcall affichenombreSerial
000470 9100 0127                 		lds temp, frebcd1
000472 d008                      		rcall affichenombreSerial
000473 d02b                      		rcall espaceserial
000474 e408                      		ldi temp, $48			;H
000475 de89                      		rcall tx
000476 e70a                      		ldi temp, $7a
000477 de87                      		rcall tx				;z
000478 940e 049a                 		call nextline
00047a 9508                      		ret
                                 ;**********************************************************************************************
                                 affichenombreSerial: 	;affiche un nombre DCB. Exemple si 0x17 est dans temp. 17 sera affich sur port serie
00047b 930f                      		push temp		;17	;On additionne 30 sur lsb et msb donc 17 = 31 + 37
00047c 9502                      		swap temp		;71
00047d 700f                      		andi temp, $0F	;1
00047e 5d00                      		subi temp, -$30 ;31
00047f de7f                      		rcall tx
000480 910f                      		pop temp ;17
000481 700f                      		andi temp, $0F
000482 5d00                      		subi temp, -$30 ;31
000483 de7b                      		rcall tx
000484 9508                      		ret
                                 ;***************************************************************************************
                                 affichenombreSerialhigh: 	;affiche un nombre DCB. Exemple si 0x17 est dans temp. 17 sera affich sur port serie
000485 9502                      		swap temp		;71
000486 700f                      		andi temp, $0F	;1
000487 5d00                      		subi temp, -$30 ;31
000488 de76                      		rcall tx
000489 9508                      		ret
                                 affichenombreSeriallow:
00048a 700f                      		andi temp, $0F
00048b 5d00                      		subi temp, -$30 ;31
00048c de72                      		rcall tx
00048d 9508                      		ret
                                 ;***************************************************************************************
                                 messageserial:
00048e 95c8                      		lpm				;lpm = load program memory. Le contenu de l'adresse point par Z se retrouve dans R0
00048f 2d00                      		mov temp, r0	;comparons r0 avec 04 pour vois si le message est  la fin
000490 3004                      		cpi temp, $04
000491 f021                      		breq finmessageserial
000492 2d00                      		mov temp, r0  	;Il faut sparer la valeur lu, exemple:(41) en 40 et 10 pour envoyer  l'afficheur
000493 de6b                      		rcall tx
000494 9631                      		adiw ZH:ZL,1	;incremente zh,zl et va relire l'addresse suivante
000495 cff8                      		rjmp messageserial
                                 finmessageserial:
000496 9508                      		ret
                                 ;***************************************************************************************
                                 virguleserial:
000497 e20c                      		ldi temp, $2c		;,
000498 de66                      		rcall tx
000499 9508                      		ret
                                 ;***************************************************************************************
                                 nextline:
00049a e00d                      		ldi temp, $d
00049b de63                      		rcall tx
00049c e00a                      		ldi temp, $A
00049d de61                      		rcall tx
00049e 9508                      		ret
                                 ;***************************************************************************************
                                 espaceserial:
00049f 930f                      		push temp
0004a0 e200                      		ldi temp, $20
0004a1 940e 02ff                 		call tx
0004a3 910f                      		pop temp
0004a4 9508                      		ret
                                 
                                 ;**************************** affichememoireserial *************************************
                                 ;affiche le contenu tel quel. exemple si $3a est dans temp 3a sera afficher
                                 affichememoireserial:
0004a5 930f                      		push temp
0004a6 930f                      		push temp
0004a7 9502                      		swap temp		;exemple 3A
0004a8 700f                      		andi temp, $0f	;on garde le  3
0004a9 e0f0                      		ldi r31,high(hexa*2) ;pointe l'addresse le la database dans R0
0004aa edea                      		ldi r30,low(hexa*2)	; l'addresse de mmoire;
0004ab 0fe0                      		add ZL, temp		;augmente l'adresse pour pointer le bon chiffre (r31 et r30 constitue zh et zl)
0004ac f408                      		brcc okpasdedepassementqserial	;(branch if carry est 0) si le carry est a 1 (il y a une retenue) = plus que FF on incrmente donc zh. Sinon il passe et laisse zl normal
0004ad 95f3                      		inc zh
                                 okpasdedepassementqserial:
0004ae 95c8                      		lpm
0004af 2d00                      		mov temp,r0
0004b0 de4e                      		rcall tx
0004b1 910f                      		pop temp
0004b2 700f                      		andi temp, $0f	;on garde le  3
0004b3 e0f0                      		ldi r31,high(hexa*2) ;pointe l'addresse le la database dans R0
0004b4 edea                      		ldi r30,low(hexa*2)	; l'addresse de mmoire;
0004b5 0fe0                      		add ZL, temp		;augmente l'adresse pour pointer le bon chiffre (r31 et r30 constitue zl et zh)
0004b6 f408                      		brcc okpasdedepassement7qserial	;(branch if carry est 0) si le carry est a 1 (il y a une retenue) = plus que FF on incrmente donc zh. Sinon il passe et laisse zl normal
0004b7 95f3                      		inc zh
                                 okpasdedepassement7qserial:
0004b8 95c8                      		lpm
0004b9 2d00                      		mov temp,r0
0004ba de44                      		rcall tx	;3 est afficher
0004bb 910f                      		pop temp
0004bc 9508                      		ret
                                 
                                 ;********************************* RESET *******************************************
                                 ;***********************************************************************************
0004bd ef0f                      RESET:	ldi	temp,low(RAMEND)
0004be bf0d                      		out	SPL,temp			; Initialisation de la pile    
0004bf e008                      		ldi	temp,high(RAMEND)	; l'adresse haute de la SRAM
0004c0 bf0e                      		out	SPH,temp 
                                 
                                 ;init memory to 0
0004c1 dcfb                      		rcall ClearAllMemory ;dans math
0004c2 d1d4                      		rcall WDT_off	;doit mettre a off selon datasheet pour protection. Peut s'enabler tout seul.
0004c3 dcd9                      		rcall ClrAllRegister
                                 ;break
                                 ;direction des ports
0004c4 e103                      		ldi temp, 0b00010011
0004c5 b904                      		out ddrb, temp	;port b en sortie pour pwm et un led pb0. PB4 en sortie avec 0v pour detection avec pb5 en entree(jumper)
0004c6 9500                      		com temp
0004c7 b905                      		out portb,temp	;met les pull up sur les entres et met 0v sur les sorties. Le LED sur pb0 warming est off
0004c8 ef0f                      		ser temp
0004c9 b907                      		out ddrc, temp	;afficheur portc en sortie
0004ca ee02                      		ldi temp, 0b11100010
0004cb b90a                      		out ddrd, temp	;en entree (int0,1) pd1, pd5,6,7 en sortie
0004cc 9500                      		com temp		;inverse temp pour activer les pullup sur pd0,2,3,4 et mettre pd1,5,6,7 a 0
0004cd b90b                      		out portd, temp	;pull up 
0004ce 2700                      		clr temp
0004cf b908                      		out portc, temp	;afficheur tous les broches du port C a 0
                                 ;ferme le led warming et active le sharing led
0004d0 dc93                      		rcall WarmingLedPulse
                                 ;interrupt *************************************************************************
0004d1 e000                      		ldi temp, (0<<int0)|(0<<int1)	;active int1 push button seulement pour commencer. 
0004d2 bb0d                      		out EIMSK,temp		;active int1 dans External Interrupt Mask Register  EIMSK
0004d3 e00b                      		ldi temp, (1<<ISC01)|(1<<ISC00)|(1<<ISC11)|(0<<ISC10)	;falling edge les 2
0004d4 9300 0069                 		sts eicra, temp
                                 ;initialisation du pointeur de eeprom
0004d6 e002                      		ldi temp, $02	;on commence a ecrire a l'adresse 2. On garde 0,1 pour le pwm config
0004d7 9300 0134                 		sts eeprompointer, temp
                                 ;init flag
                                 		;tous les flags sont a 0 par ClrAllMemory
                                 ;init serial uart
0004d9 de02                      		RCALL USART_Init
                                 ;init afficheur
0004da db9a                      		rcall reset_afficheur
0004db dbc4                      		rcall videecran
0004dc dbca                      		rcall posi1
0004dd e0f0                      		ldi r31,high(data7*2)  		;"counter yt 1.01"    Ici on va chercher l'addresse mmoire ou se retrouve le data  afficher.
0004de e6e8                      		ldi r30,low(data7*2)		;cette addresse se retrouve dans le registe Z. Qui est constitu en fait
0004df dc29                      		rcall message
0004e0 dfb9                      		rcall nextline
0004e1 dc5a                      		rcall tempo5s
0004e2 dbbd                      		rcall videecran
                                 
                                 ;initialise le pwm 16 bits pour regler mon ocxo a 10mhz pile
0004e3 ef0f                      		ldi temp,$FF		;set le top			*******************  TOUJOURS LOADER VALEUR H EN PREMIER sinon fonctionne pas. J'ai chercher longtemps sacrement lol
0004e4 9300 0087                 		sts icr1h, temp		;					*******************  TOUJOURS LOADER VALEUR H EN PREMIER
0004e6 ef0f                      		ldi temp, $FF		;FFFF = 65535 pour 16 bit de resolution.
0004e7 9300 0086                 		sts icr1l, temp
0004e9 e802                      		ldi temp, (1<<COM1A1)|(1<<WGM11)|(0<<WGM10)	;mode 14 fast pwm top = ICR1
0004ea 9300 0080                 		sts tccr1a, temp
0004ec e109                      		ldi temp, (1<<WGM12)|(1<<WGM13)|(1<<CS10)	;no prescaler   -----> 0<<CS10=off  1<<CS10=on
0004ed 9300 0081                 		sts tccr1b, temp
0004ef e804                      		ldi temp, $84	;ffff = 100 7fff = 50%
0004f0 9300 0089                 		sts ocr1ah, temp
0004f2 e10d                      		ldi temp, $1d		
0004f3 9300 0088                 		sts ocr1al, temp
                                 ;*********************************************************************************************************************************
                                 ;PUSH  BUTTON et EEPROM ***********************************************************************************************************
                                 ;*********************************************************************************************************************************
                                 ;Sonde le push button, si pushbutton est enfonce = reset eeprom par valeur default 
0004f5 994b                      		sbic pind, pd3		;(Skip if Bit in I/O Register is Cleared)
0004f6 c009                      		rjmp ButtonNotPressed			
0004f7 dba8                      		rcall videecran		;push button est appuy = reset default
0004f8 dbae                      		rcall posi1
0004f9 e0f0                      		ldi r31,high(data20*2)  	;Set to default                Ici on va chercher l'addresse mmoire ou se retrouve le data  afficher.
0004fa e8ec                      		ldi r30,low(data20*2)		;cette addresse se retrouve dans le registe Z. Qui est constitu en fait du registre R31 et R30. Z est en fait 16 bits de long.								
0004fb dc0d                      		rcall message				;dans message, on affiche ce que pointe Z "ceci est un test"
0004fc 940e 049a                 		call nextline
0004fe dd99                      		rcall effaceeeprom
0004ff dc3c                      		rcall tempo5s
                                 ButtonNotPressed:	
                                 
                                 ;compteurs
                                 ;*********************************************************************************************************************************
                                 ;**************************************************** compteurs timer0 ***********************************************************
                                 ;*********************************************************************************************************************************
                                 ytyt:
                                 ;overflow du timer0
000500 e001                      		ldi temp, (1<<TOIE0)	;active interupt overflow
000501 9300 006e                 		sts timsk0, temp
000503 e000                      		ldi temp, (0<<CS00)	;stop counter 8 bit
000504 bd05                      		out TCCR0B,temp
000505 2700                      		clr temp	
000506 bd06                      		out tcnt0, temp		;met le compteur a 0 au cas
                                 watchdogsetup:	;active int watchdog 1 secondes. Si le gps pulse manque un pulse. Le watchdow timeout et on passe en mode selfrunning
000507 95a8                      		wdr		;Au debut je croyais que 1 seconde serait trop court car on a seulement un wdr a chaque seconde. Aprs test, aucun probleme, J'imagine que le watchdog est un peu plus lent.
000508 e108                      		ldi temp, (1<<WDCE)|(1<<WDE) ;toujours envoy ces 2 valeurs en premier, ensuite en dedans de 4 clock nous pouvons changer le registre
000509 9300 0060                 		sts	WDTCSR,temp
00050b e406                      		ldi temp, (0<<WDE)|(1<<WDIE)|(0<<wdp3)|(1<<wdp2)|(1<<wdp1)|(0<<wdp0) ;enable watchdog 1s. interrupt seulement pas de reset
00050c 9300 0060                 		sts WDTCSR,temp
                                 
                                 
                                 ;***********************************************************************************************************************************
                                 ;***********************************************************************************************************************************
                                 ;***************************************************        Run      ***************************************************************
                                 ;***********************************************************************************************************************************
                                 runmodeprep1:
00050e db91                      		rcall videecran
                                 runmodeprep:
00050f d01e                      		rcall CheckForTimeGate
000510 9100 0104                 		lds temp, GateTime
000512 3001                      		cpi temp, 1
000513 f409                      		brne Gate10ks
000514 c00c                      		rjmp Gate1ks
                                 Gate10ks:
000515 dc2c                      		rcall affichegate10000s	;Gate 10000s on lcd and serial
000516 dba5                      		rcall espace
000517 df7f                      		rcall virguleserial
000518 de1a                      		rcall affichesatellite2
000519 df7d                      		rcall virguleserial
00051a e100                      		ldi temp,$10	;1000
00051b 9300 012e                 		sts echantillon_timel, temp	;nombre de seconde a echantilloner
00051d e207                      		ldi temp,$27
00051e 9300 012f                 		sts echantillon_timeh,temp
000520 c184                      		rjmp Retour_en_mode_interrupt
                                 
                                 Gate1ks:
000521 dc25                      		rcall affichegate1000s	;Gate 1000s on lcd and serial
000522 db99                      		rcall espace
000523 db98                      		rcall espace
000524 df72                      		rcall virguleserial
000525 de0d                      		rcall affichesatellite2
000526 df70                      		rcall virguleserial
000527 ee08                      		ldi temp,$e8	;1000
000528 9300 012e                 		sts echantillon_timel, temp	;nombre de seconde a echantilloner
00052a e003                      		ldi temp,$03
00052b 9300 012f                 		sts echantillon_timeh,temp
00052d c177                      		rjmp Retour_en_mode_interrupt
                                 
                                 ;*********************************************************   CheckForTimeGate*************************************************************
                                 ;*****************************************************************************************************************************************
                                 ;*****************************************************************************************************************************************
                                 CheckForTimeGate: ; grab if pd4 is 0 or 1
00052e 9b4c                      		sbis pind, pd4	;si jumper is on saute la ligne
00052f c004                      		rjmp willbe10000
000530 e001                      		ldi temp, 1
000531 9300 0104                 		sts GateTime, temp			;By default GateTime will be 1 by pull up
000533 9508                      		ret
                                 willbe10000:
000534 2700                      		clr temp
000535 9300 0104                 		sts GateTime, temp			;With switch to gnd Gatetime will be 0
000537 9508                      		ret
                                 
                                 
                                 ;*****************************************************************************************************************************************
                                 ;*****************************************************************************************************************************************
                                 ;*********************************************************   TIM0_OVF *    ***************************************************************
                                 ;*****************************************************************************************************************************************
                                 ;*****************************************************************************************************************************************
                                 TIM0_OVF:	;viens ici a APRES chaque 256 clock a l'aide le int overflow
                                 ;			In normal operation the	Timer/Counter Overflow Flag (TOV0) will be set in the same timer clock cycle as the TCNT0 becomes zero
                                 ;Important: Si le dernier pulse arrive dans cette interruption. Celui ci sera fait apres. DOnc le sample aura 4,5,6 tic de trop.
                                 ;Je n'ai aucun moyen de corriger ca. Par chance, Vu que je roule a 10 mhz pile, si le dernier pulse n'arrive pas dedans, il n'arrivera donc jamais dedans.
                                 ;Et si il arrive toujours dedans, il va etre toujours dedans. Dans ce cas je changerai ou ajouterai une boucle de temps au depart.
                                 ;Apres test le dernier pulse arrive a 00 en phase 2,4,5,6 et a 80 a 1 et 2.
                                 ;Reponse. Il vient ici avant le dernier latch car le compteur est parti a 7,8 tic en retard, Donc il vient ici 7-8 tic avant la fin. Quand le compteur est arret dans l'interruption latch. Il est rendu a 0 a ce moment.
                                 ;En aucun cas l'interruption latch peut arriver en mme temps que un timer overflow pour cette raison.
000538 ef0f                      		ldi temp, $ff
000539 17a0                      		cp xl, temp			;tcnt0 monte a FF et retourne a 0. Un intterruption survien et on arrive ici. 
00053a 07b0                      		cpc xh, temp		;On incremente x et regarde si le registre x est rendu plein, compare a $FFFF
00053b f1b9                      		breq incy			;x est increment de 1 a chaque 256 clock. quand x = FFFF on monte y de 1 (ca prend un clk et ffff monte a 10000) et on remet x a 0.
00053c 9611                      		adiw xh:xl, $01		;monte de 1 le registre x de 16 bit: X vaut (FFFF+1) x $100 = $10,00,00 1000000 (6 zero)
                                 ;scan gatetime si la gate a chang on restart avec le nouveau gatetime
00053d 9100 0104                 		lds temp, gatetime ;1
00053f 930f                      		push temp ;1
000540 dfed                      		rcall CheckForTimeGate ;0
000541 9110 0104                 		lds temp2, gatetime	;0
000543 910f                      		pop temp ;1
000544 1701                      		cp temp, temp2
000545 f051                      		breq canapaschange
000546 dc26                      		rcall CounterLedOff
000547 df52                      		rcall nextline
000548 9ae1                      		sbi eifr, 1
000549 e002                      		ldi temp, 0b00000010	;remove int1 flag pour etre encore plus sur. (je l'ai dja vu 2 fois de fille comme l'interrupt se faisait 2 fois.
00054a bb0c                      		store eifr, temp
00054b e000                      		ldi temp, (0<<CS00)	;stop counter 8 bit
00054c bd05                      		out TCCR0B,temp
00054d e001                      		ldi temp,0b00000001
00054e bb05                      		store TIFR0, temp		;annule timer l'overflow si il y a eu un
00054f c116                      		rjmp onnettoie2
                                 canapaschange:
                                 ;toggle led buffer
                                 ;ici je fais clignotter la led count. Si jamais le uC plante on s'en appercoit. La led est solid on ou off
                                 ;vitesse du clignottement: (1/10E6) x 256 x (256x4) = 26.21 ms ca toggle. Donc 26ms hi 26ms low. 26x2 = un cycle. 1/(26.21msx2) = 19.07 hz
000550 9100 0227                 		load temp, ledcompteurflag
000552 9503                      		inc temp
000553 9300 0227                 		store ledcompteurflag, temp
000555 3f0f                      		cpi temp, $ff
000556 f4d9                      		brne onsenpasse
000557 9100 0228                 		load temp, ledcompteurflag2
000559 9503                      		inc temp
00055a 9300 0228                 		store ledcompteurflag2, temp
00055c 3004                      		cpi temp, $4
00055d f4a1                      		brne onsenpasse
                                 ;toggle le led counter
00055e b10b                      		load temp, portd
00055f ff06                      		sbrs temp, 6
000560 c009                      		rjmp onturnon
000561 b10b                      		load temp, portd
000562 7b0f                      		cbr temp, 0b01000000
000563 b90b                      		out portd, temp
000564 2700                      		clr temp
000565 9300 0227                 		sts ledcompteurflag, temp
000567 9300 0228                 		sts ledcompteurflag2, temp
000569 9518                      		reti
                                 onturnon:
00056a b10b                      		load temp, portd
00056b 6400                      		sbr temp, 0b01000000
00056c b90b                      		out portd, temp
00056d 2700                      		clr temp
00056e 9300 0227                 		sts ledcompteurflag, temp
000570 9300 0228                 		sts ledcompteurflag2, temp
                                 onsenpasse:
000572 9518                      		reti
                                 
                                 incy:						;y vaux (1,00,00,00)...
000573 9621                      		adiw yh:yl, $01		;On monte y et on remet x a 0
000574 27aa                      		clr xl
000575 27bb                      		clr xh
000576 9518                      		reti
                                 ;*****************************************************************************************************************************************
                                 ;*****************************************************************************************************************************************
                                 ;*********************************************************   Push button   ***************************************************************
                                 ;*****************************************************************************************************************************************
                                 ;*****************************************************************************************************************************************
                                 pushbutton:		;dans le mode warming up 15 minute. Push button gnere aussi un interruption. On regarde ici si elle arrive derant le 15 minutes
                                 
000577 940e 049a                 		call nextline
                                 ;ici on veut afficher l'heure. On sait que le bouton a t appuyer dans le mode count. On doit donc tout rnitialiser car ici on bypass le reti. C'est pas vident de fonctionner ainsi
                                 ;mais j'ai pas le choix.
000579 95a8                      		wdr
00057a 2700                      		clr temp
00057b 9300 0138                 		sts affichesatelliteflag, temp ;empeche le nombre de satellite de s'afficher. deja mis a 0 auparavent mais eu un bug que ca affichait.
                                 ;ferme le led warming car si le push button est appuy plusieurs fois de suite lors du warming. Le les du pulse reste allumer car le push button genere 2 interruptions et le WAIT na pas le temps de
                                 ;fermer le led
00057d 9820                      		cbi ddrb, 0
00057e 9828                      		cbi portb, 0
                                 ;ferme le led counter
00057f b10b                      		load temp, portd
000580 7b0f                      		cbr temp, 0b01000000
000581 b90b                      		out portd, temp
                                 ;affiche heure et position. (dure 20 secondes)
000582 ddd9                      		rcall afficheheureposition ;se trouve dans serial
                                 ;affiche eeporom
000583 dd21                      		rcall affiche_eeprom ;(se trouve dans eeprom.asm)
000584 dc29                      		rcall seconde_tempo
000585 95a8                      		wdr	
                                 ;on doit tout rnitialiser car on revient ici par interruption push button quand on etait en train de compter. Donc on remet a 0 et on
                                 ;retourne  la phase ou nous etions
000586 9ae1                      		sbi eifr, 1
000587 e002                      		ldi temp, 0b00000010	;remove int1 flag pour etre encore plus sur. (je l'ai dja vu 2 fois de fille comme l'interrupt se faisait 2 fois.
000588 bb0c                      		store eifr, temp
000589 e000                      		ldi temp, (0<<CS00)	;stop counter 8 bit
00058a bd05                      		out TCCR0B,temp
00058b 2700                      		clr temp	
00058c bd06                      		out tcnt0, temp		;remet le compteur a 0
00058d 9300 0100                 		sts comptel, temp	;initialise le flag compte. Il part a 0
00058f 9300 0101                 		sts compteh, temp
000591 dc0b                      		rcall clrallregister
000592 e001                      		ldi temp,0b00000001
000593 bb05                      		store TIFR0, temp		;annule timer l'overflow si il y a eu un
000594 9ae1                      		sbi eifr, 1
000595 e002                      		ldi temp, 0b00000010	;remove int1 flag pour etre encore plus sur. (je l'ai dja vu 2 fois de fille comme l'interrupt se faisait 2 fois.
000596 bb0c                      		store eifr, temp
000597 e000                      		ldi temp, (0<<CS00)	;stop counter 8 bit
000598 bd05                      		out TCCR0B,temp
000599 e001                      		ldi temp,0b00000001
00059a bb05                      		store TIFR0, temp		;annule timer l'overflow si il y a eu un
00059b c0ca                      		rjmp onnettoie2
                                 
                                 ;*****************************************************************************************************************************************
                                 ;*****************************************************************************************************************************************
                                 ;*********************************************************   Latch gate    ***************************************************************
                                 ;*****************************************************************************************************************************************
                                 ;*****************************************************************************************************************************************
                                 Latch:
                                 ; Un pulse arrive chaque seconde. On calcul le nombre de hertz a l'aide du compteur 8bit en incrmentant le registre x et y.
                                 ; meme nombre de clock (operations) pour partir ou arreter le compteur pour que ca balance.
                                 ; un probleme peut survenir. Le compteur tcnt0 compte sans arret.
                                 ; si l'interruption arrive quand tcnt0 est a 254... il se cr un overflow pendant l'interruption. Par contre le flag reste en suspand et n'est pas pris en compte
                                 ; tout de suite car les int sont disable durant le traitement de celle ci.
                                 ; le comprteur est donc fauss car tcnt0 est additionn au total mais maintenant il vaut seulement 0 ou 1 car il a recommenc.
                                 ; par contre l'interruption en mmoire est execut aussitot sorti de cette interruption et les 256 clock de perdu sont additionn au prochain.
                                 ;***IMPORTANT** finalement l'overflow se gere comme un neuvieme bit qui vaut (256) $100. Simplement ajouter le tcnt0 + $100 quand le tov0 est a 1
                                 ; jai donc inclus du code pour gerer le bit overflow quand cela se produit
                                 ;*** important: J'ai lu apres dans le datasheet: tov0 peut etre considr comme un 9iem bit!!! Plus facile de penser comme cela. il passe a 1 en meme temps qu'il passe tcnt0 a 0.
                                 
00059c 9100 0101                 		lds r16, compteh ;compte est increment a chaque seconde
00059e 9110 0100                 		lds r17, comptel
0005a0 9120 012f                 		lds r18, echantillon_timeh	;on echantillone combien de temps ???? C'est ici
0005a2 9130 012e                 		lds r19, echantillon_timel
0005a4 1713                      		cp r17, r19
0005a5 0702                      		cpc r16, r18
0005a6 f069                      		breq off
0005a7 95a8                      		wdr	;reset watchdog et balance le depart et l'arret 16 cycles exactement juste apres l'interrupt. Tous les cycles sont important et doivent etre compte.
0005a8 e001                      		ldi temp, (1<<CS00)	;start counter 8 bit
0005a9 bd05                      		out TCCR0B,temp
                                 
                                 	;peux ajouter du code ici sans changer le resultat du count mais ne doit pas depasser 256 clock
                                 	;pourquoi... parce que ici les interruption sont deactiv. Si ca prend plus que 256 clock le compteur tcnt0 va faire un ou plusieur overflow mais ne sera
                                 	;pas pris en compte car il y a un buffer de seulement 1 interruption.
                                 
0005aa 91f0 0101                 		lds zh, compteh
0005ac 91e0 0100                 		lds zl, comptel
0005ae 9631                      		adiw zh:zl, 1
0005af 93f0 0101                 		sts compteh, zh
0005b1 93e0 0100                 		sts comptel, zl
0005b3 9518                      		reti
                                 off:
0005b4 e000                      		ldi temp, (0<<CS00)	;stop counter 8 bit
0005b5 bd05                      		out TCCR0B,temp
0005b6 2700                      		clr temp
0005b7 9300 0101                 		sts compteh, temp	;remet le compteur a 0
0005b9 9300 0100                 		sts comptel, temp
0005bb 95a8                      		wdr
0005bc 94f8                      		cli		;arrete tous les futurs interruptions
                                 
0005bd b10b                      		load temp, portd
0005be 7b0f                      		cbr temp, 0b01000000
0005bf b90b                      		out portd, temp
                                 
                                 ;ici on doit gerer la valeur de x et y qui s'est accumul dans l'echantionnage
                                 ;(xh:xl x $100) + (yh:yl x $1000000) + le reste du compteur tcnt0 + overflow (256) si actif = nombre de clock coul total.
                                 
                                 ;r21:r20 x r23:r22 = r5:r4:r3:r2
0005c0 2f5b                      		mov r21, xh	;x x 256
0005c1 2f4a                      		mov r20, xl
0005c2 e071                      		ldi r23, $01		;$100 = 256
0005c3 e060                      		ldi r22 ,$00
0005c4 dbaa                      		rcall mul16				;M1M:M1L x M2M:M2L = res4:res3:res2:res1 = r5:r4:r3:r2
0005c5 922f                      		push r2		;conserve la reponse
0005c6 923f                      		push r3
0005c7 924f                      		push r4
0005c8 925f                      		push r5
0005c9 93df                      		push yh	;conservons y
0005ca 93cf                      		push yl
                                 ;y x 1000000
                                 ;* r23:r22:r21:r20 x  r19:r18:r17:r16   =  r27:r26:r25:r24:r23:r22:r21:r20	(seulement r24 a r20 se remplissent) r24 vaut 2 a 9 000 000 000hz
0005cb dbd1                      		rcall clrallregister	;clr toute les registre de 16 a 31
0005cc 91cf                      		pop yl
0005cd 91df                      		pop yh
0005ce 2f4c                      		mov r20, yl			;r32,r22,yh,yl
0005cf 2f5d                      		mov r21, yh
0005d0 e031                      		ldi r19, $01		;$01:00:00:00 = $10000000 x Y
0005d1 dbb5                      		rcall mul32			;reponse dans r27:r26:r25:r24:r23:r22:r21:r20
                                 ;additionons les 2
0005d2 913f                      		pop r19			;reponse de x (x x 256)
0005d3 912f                      		pop r18
0005d4 911f                      		pop r17
0005d5 910f                      		pop r16
0005d6 2799                      		clr r25
0005d7 0f40                      		add	r20,r16		;Addition des octets de poids faible
0005d8 1f51                      		adc	r21,r17	
0005d9 1f62                      		adc	r22,r18	
0005da 1f73                      		adc	r23,r19		;Addition des octets de poids fort avec retenue
0005db 1f89                      		adc r24, r25	;conserve le carre dans r24 
                                 		;reponse dans r27:r26:r25:r24:r23:r22:r21:r20
                                 ;ajoutons tcnt0
0005dc b506                      		in r16, tcnt0	;r16 = tcnt0
0005dd 2711                      		clr r17
0005de 2722                      		clr r18
0005df 2733                      		clr r19
0005e0 2799                      		clr r25
0005e1 0f40                      		add	r20,r16		; Addition des octets de poids faible
0005e2 1f51                      		adc	r21,r17	
0005e3 1f62                      		adc	r22,r18	
0005e4 1f73                      		adc	r23,r19		;Addition des octets de poids fort avec retenue
0005e5 1f89                      		adc r24,r25
                                 		;reponse dans r27:r26:r25:r24:r23:r22:r21:r20
                                 ;test overflow bit
0005e6 9ba8                      		sbis TIFR0, tov0	;skip if bit is set (bit overflow)  Si il y a eu overflow entre l'interrup et l'arret on ajoute 256
0005e7 c00c                      		rjmp fiou
0005e8 e001                      		ldi temp, (1<<TOV0)	;annule l'overflow pending et la future interruption par le fait meme. Faire a la main car reti est bypass.
0005e9 bb05                      		out tifr0, temp
0005ea 2700                      		clr r16
0005eb e011                      		ldi r17,$01		;additionne 256
0005ec 2722                      		clr r18
0005ed 2733                      		clr r19
0005ee 2799                      		clr r25
0005ef 0f40                      		add	r20,r16		;Addition des octets de poids faible
0005f0 1f51                      		adc	r21,r17	
0005f1 1f62                      		adc	r22,r18
0005f2 1f73                      		adc	r23,r19		;Addition des octets de poids fort avec retenue
0005f3 1f89                      		adc r24,r25
                                 ;reponse dans r27:r26:r25:r24:r23:r22:r21:r20
                                 fiou:
0005f4 9340 0109                 		sts frequence_1, r20
0005f6 9350 010a                 		sts frequence_2, r21
0005f8 9360 010b                 		sts frequence_3, r22
0005fa 9370 010c                 		sts frequence_4, r23
0005fc 9380 010d                 		sts frequence_5, r24	;dans 10000 secondes r24 monte a 2
                                 
                                 ;stop: rjmp stop
                                 ;ici le nombre de hertz par seconde est dans la memoire frequence en HEX
                                 ;convertissons HEX to BDC
                                 ;	r20:r19:r18:r17:r16	    >>>   	r25:r24:r23:r22:r21
0005fe 9140 010d                 		lds r20, frequence_5
000600 9130 010c                 		lds r19, frequence_4
000602 9120 010b                 		lds r18, frequence_3
000604 9110 010a                 		lds r17, frequence_2
000606 9100 0109                 		lds r16, frequence_1
000608 dbbe                      		rcall hex2bcdyt		;conversion bcd	;fonctionne bien pas de bug test avec afficheur ca concorde.
000609 9350 0127                 		sts frebcd1, r21
00060b 9360 0126                 		sts frebcd2, r22
00060d 9370 0125                 		sts frebcd3, r23
00060f 9380 0124                 		sts frebcd4, r24
000611 9390 0123                 		sts frebcd5, r25
000613 93a0 0122                 		sts frebcd6, r26
                                 ;**************************************** On affiche ***********************************
000615 da98                      		rcall posi2
000616 daa8                      		rcall effaceligne
000617 da96                      		rcall posi2
000618 9100 0104                 		lds temp, GateTime
00061a 3001                      		cpi temp, $1
00061b f529                      		brne displaymhz10000
                                 ;gate 1000 10000000.000  Hz
                                 displaymhz1000:						;j'ai   01 00 00 00 00 00  ou  00 99 99 99 99 99
00061c de13                      		rcall sendspeed1000serial
00061d 9100 0122                 		lds temp, frebcd6		;j'affiche:        10000000.000
00061f 3000                      		cpi temp, 0
000620 f411                      		brne aldo1000				;si frebcd6 = 0 on affiche un espace a place
000621 da9a                      		rcall espace			;
000622 c003                      		rjmp yahoo1000
                                 aldo1000:
000623 9100 0122                 		lds temp, frebcd6
000625 dad5                      		rcall affichelsb
                                 yahoo1000:
000626 9100 0123                 		lds temp, frebcd5
000628 daab                      		rcall affichenombre
000629 9100 0124                 		lds temp, frebcd4
00062b daa8                      		rcall affichenombre
00062c 9100 0125                 		lds temp, frebcd3
00062e daa5                      		rcall affichenombre
00062f 9100 0126                 		lds temp, frebcd2
000631 daba                      		rcall affichemsb
000632 e20e                      		ldi temp, $2e		;point
000633 da95                      		rcall afficheascii
000634 9100 0126                 		lds temp, frebcd2
000636 dac4                      		rcall affichelsb
000637 9100 0127                 		lds temp, frebcd1
000639 da9a                      		rcall affichenombre
00063a da81                      		rcall espace
00063b da80                      		rcall espace
00063c e408                      		ldi temp, $48
00063d da8b                      		rcall afficheascii
00063e e70a                      		ldi temp, $7a
00063f da89                      		rcall afficheascii
000640 d024                      		rcall onnettoie
                                 
                                 ;gate 10000 10000000.0000 Hz
                                 displaymhz10000:				;10 00 00 00 00 00   ou   09 00 00 00 00 00
000641 de13                      		rcall sendspeed10000serial
000642 9100 0122                 		lds temp, frebcd6		;10.000,000,000,0
000644 7f00                      		andi temp, $F0
000645 3000                      		cpi temp, 0
000646 f411                      		brne aldo				
000647 da74                      		rcall espace			
000648 c003                      		rjmp yahoo
                                 aldo:
000649 9100 0122                 		lds temp, frebcd6	
00064b daa0                      		rcall affichemsb
                                 yahoo:
00064c 9100 0122                 		lds temp, frebcd6	 
00064e daac                      		rcall affichelsb
00064f 9100 0123                 		lds temp, frebcd5 
000651 da82                      		rcall affichenombre
000652 9100 0124                 		lds temp, frebcd4
000654 da7f                      		rcall affichenombre
000655 9100 0125                 		lds temp, frebcd3
000657 da7c                      		rcall affichenombre
000658 e20e                      		ldi temp, $2e		;point
000659 da6f                      		rcall afficheascii
00065a 9100 0126                 		lds temp, frebcd2
00065c da77                      		rcall affichenombre
00065d 9100 0127                 		lds temp, frebcd1
00065f da74                      		rcall affichenombre
000660 da5b                      		rcall espace
000661 e408                      		ldi temp, $48		;H
000662 da66                      		rcall afficheascii
000663 e70a                      		ldi temp, $7a		;z
000664 da64                      		rcall afficheascii
                                 
                                 onnettoie:
000665 dbfe                      		rcall eepromwritebytes ;on conserve la valeur en eeprom
                                 onnettoie2:
000666 db36                      		rcall clrallregister
000667 bd06                      		out tcnt0, temp
000668 9300 0100                 		sts comptel, temp
00066a 9300 0101                 		sts compteh, temp
00066c ef0f                      		ldi	temp,low(RAMEND)
00066d bf0d                      		out	SPL,temp			; Initialisation de la pile    
00066e e008                      		ldi	temp,high(RAMEND)	; l'adresse haute de la SRAM
00066f bf0e                      		out	SPH,temp
000670 ce9e                      		rjmp runmodeprep
                                 
                                 ;********************************************************************************************************************
                                 ;********************************************************************************************************************
                                 ;********************************************************************************************************************
                                 watchdog_overflow:
                                 	;le module gps a perdu son antenne ou a un faible signal. Nous devons rouler sans pulse gps.
                                 	;a partir de ce moment nous ne devons plus changer le pwm
000671 94f8                      		cli
000672 95a8                      		wdr
                                 ;etein le led counter et sattelite forcement
000673 b10b                      		load temp, portd
000674 730f                      		cbr temp, 0b11000000
000675 b90b                      		out portd, temp
000676 940e 00a7                 		call posi1
000678 940e 049a                 		call nextline
00067a e0f0                      		ldi r31,high(data19*2)  	;"No pulse"
00067b e7ea                      		ldi r30,low(data19*2)
00067c 940e 0109                 		call message
00067e 940e 00ae                 		call posi2
000680 940e 049a                 		call nextline
000682 e0f0                      		ldi r31,high(data32*2)  	;"waiting"
000683 e9ee                      		ldi r30,low(data32*2)
000684 da84                      		rcall message
000685 940e 049a                 		call nextline
                                 jsjs:
000687 dab4                      		rcall tempo5s
000688 e001                      		ldi temp, (1<<TOV0)	;annule l'overflow pending et la future interruption par le fait meme. Faire a la main car reti est bypass.
000689 bb05                      		out tifr0, temp
00068a e000                      		ldi temp, (0<<CS00)	;stop counter 8 bit
00068b bd05                      		out TCCR0B,temp
00068c db10                      		rcall clrallregister
00068d 2700                      		clr temp	
00068e bd06                      		out tcnt0, temp		;met le compteur a 0 au cas
00068f 9300 0100                 		sts comptel, temp	;initialise le flag compte. Il repart a 0
000691 9300 0101                 		sts compteh, temp
                                 ;ici on dois attendre la detection d'un gps pulse. donc on loop ici et quand un pulse est detect, on affiche la bonne phase et on repart la calibration
                                 
                                 toujoursrien:
000693 95a8                      		wdr				;empeche un autre interrupt watchdog de survenir. Sinon le flag interrupt watchdog se met a 1 et un autre interrupt watchdog est excut aussitot sei embarqu
000694 994a                      		sbic pind, pd2
000695 cffd                      		rjmp toujoursrien
000696 ce77                      		rjmp runmodeprep1
                                 
                                 ;*******************************************************************************************************************
                                 ;*******************************************************************************************************************
                                 ;watchdog off vient du datasheet
                                 WDT_off:
000697 94f8                      		cli
000698 95a8                      		wdr
000699 b704                      		in r16, MCUSR
00069a 7f07                      		andi r16, ~(1<<WDRF)
00069b bf04                      		out MCUSR, r16
00069c 9100 0060                 		lds r16, WDTCSR
00069e 6108                      		ori r16, (1<<WDCE) | (1<<WDE)
00069f 9300 0060                 		sts WDTCSR, r16
0006a1 e000                      		ldi r16, (0<<WDE)
0006a2 9300 0060                 		sts WDTCSR, r16
0006a4 9508                      		ret
                                 ;****************************************************************** retour en mode interrupt ************************************************************
                                 ;****************************************************************** retour en mode interrupt ************************************************************
                                 ;****************************************************************** retour en mode interrupt ************************************************************
                                 Retour_en_mode_interrupt:
0006a5 e002                      		ldi temp, (1<<int1)|(0<<int0)	;deactive int0 interrup gps pulse
0006a6 bb0d                      		out EIMSK,temp					;deactive int0 dans External Interrupt Mask Register  EIMSK
0006a7 95a8                      		wdr
0006a8 b704                      		in temp, MCUSR			;enleve le watchdog interrupt pending avant le sei.
0006a9 7f07                      		andi temp, ~(1<<WDRF)
0006aa bf04                      		out MCUSR, r16	
0006ab 9478                      		sei ;active les interrupt (watchdog seument pour senser le pulse)
                                 		;boucle de temps pour laisser le voltage du pwm se stabilis (condensabeur charg) peut etre pas ncessaire mais pour 2 secondes rien ne presse
0006ac db01                      		rcall seconde_tempo
0006ad 95a8                      		wdr
0006ae daff                      		rcall seconde_tempo
0006af 95a8                      		wdr
                                 		; Add delay to always start count at the same place.
                                 pasencorepret:	;;ici on attend un pulse et part tout de suite apres. le but est de balancer le pulse de la fin pour qu'il n'arrive pas en meme temps qu'un timer ovf
0006b0 994a                      		sbic pind, PD2
0006b1 cffe                      		rjmp pasencorepret
0006b2 95a8                      		wdr
                                 pasencorepret2:
0006b3 9b4a                      		sbis pind, PD2
0006b4 cffe                      		rjmp pasencorepret2
0006b5 95a8                      		wdr		;viens tous juste des passer a 5v
0006b6 dae6                      		rcall clrallregister
0006b7 e003                      		ldi temp, 0b00000011	;enleve les interrupt pending avant l'activation des interrupt
0006b8 bb0c                      		store eifr,temp
0006b9 e003                      		ldi temp, (1<<int1)|(1<<int0)	;active int0 interrup gps pulse   ---->1<<int1 = push button active
0006ba bb0d                      		out EIMSK,temp					;active int0 dans External Interrupt Mask Register  EIMSK
0006bb 95a8                      		wdr	
                                 .include "NopLoop.asm"
                                 
0006bc 0000                      nop
0006bd 0000                      nop
0006be 0000                      nop
0006bf 0000                      nop
0006c0 0000                      nop
0006c1 0000                      nop
0006c2 0000                      nop
0006c3 0000                      nop
0006c4 0000                      nop
0006c5 0000                      nop
0006c6 0000                      nop
0006c7 0000                      nop
0006c8 0000                      nop
0006c9 0000                      nop
0006ca 0000                      nop
0006cb 0000                      nop
0006cc 0000                      nop
0006cd 0000                      nop
0006ce 0000                      nop
0006cf 0000                      nop
0006d0 0000                      nop
0006d1 0000                      nop
0006d2 0000                      nop
0006d3 0000                      nop
0006d4 0000                      nop
0006d5 0000                      nop
0006d6 0000                      nop
0006d7 0000                      nop
0006d8 0000                      nop
0006d9 0000                      nop
0006da 0000                      nop
0006db 0000                      nop
0006dc 0000                      nop
0006dd 0000                      nop
0006de 0000                      nop
0006df 0000                      nop
0006e0 0000                      nop
0006e1 0000                      nop
0006e2 0000                      nop
0006e3 0000                      nop
0006e4 0000                      nop
0006e5 0000                      nop
0006e6 0000                      nop
0006e7 0000                      nop
0006e8 0000                      nop
0006e9 0000                      nop
0006ea 0000                      nop
0006eb 0000                      nop
0006ec 0000                      nop
0006ed 0000                      nop
0006ee 0000                      nop
0006ef 0000                      nop
0006f0 0000                      nop
0006f1 0000                      nop
0006f2 0000                      nop
0006f3 0000                      nop
0006f4 0000                      nop
0006f5 0000                      nop
0006f6 0000                      nop
0006f7 0000                      nop
0006f8 0000                      nop
0006f9 0000                      nop
0006fa 0000                      nop
0006fb 0000                      nop
0006fc 0000                      nop
0006fd 0000                      nop
0006fe 0000                      nop
0006ff 0000                      nop
000700 0000                      nop
000701 0000                      nop
000702 0000                      nop
000703 0000                      nop
000704 0000                      nop
000705 0000                      nop
000706 0000                      nop
000707 0000                      nop
000708 0000                      nop
000709 0000                      nop
00070a 0000                      nop
00070b 0000                      nop
00070c 0000                      nop
00070d 0000                      nop
00070e 0000                      nop
00070f 0000                      nop
000710 0000                      nop
000711 0000                      nop
000712 0000                      nop
000713 0000                      nop
000714 0000                      nop
000715 0000                      nop
000716 0000                      nop
000717 0000                      nop
000718 0000                      nop
000719 0000                      nop
00071a 0000                      nop
00071b 0000                      nop
00071c 0000                      nop
00071d 0000                      nop
00071e 0000                      nop
00071f 0000                      nop
000720 0000                      nop
000721 0000                      nop
000722 0000                      nop
000723 0000                      nop
000724 0000                      nop
000725 0000                      nop
000726 0000                      nop
000727 0000                      nop
000728 0000                      nop
000729 0000                      nop
00072a 0000                      nop
00072b 0000                      nop
00072c 0000                      nop
00072d 0000                      nop
00072e 0000                      nop
00072f 0000                      nop
000730 0000                      nop
000731 0000                      nop
000732 0000                      nop
000733 0000                      nop
000734 0000                      nop
000735 0000                      nop
000736 0000                      nop
000737 0000                      nop
000738 0000                      nop
000739 0000                      nop
00073a 0000                      nop
00073b 0000                      nop
00073c 0000                      nop
00073d 0000                      nop
00073e 0000                      nop
00073f 0000                      nop
000740 0000                      nop
000741 0000                      nop
000742 0000                      nop
000743 0000                      nop
000744 0000                      nop
000745 0000                      nop
000746 0000                      nop
000747 0000                      nop
000748 0000                      nop
000749 0000                      nop
00074a 0000                      nop
00074b 0000                      nop
00074c 0000                      nop
00074d 0000                      nop
00074e 0000                      nop
00074f 0000                      nop
000750 0000                      nop
000751 0000                      nop
000752 0000                      nop
000753 0000                      nop
000754 0000                      nop
000755 0000                      nop
000756 0000                      nop
000757 0000                      nop
000758 0000                      nop
000759 0000                      nop
00075a 0000                      nop
00075b 0000                      nop
00075c 0000                      nop
00075d 0000                      nop
00075e 0000                      nop
00075f 0000                      nop
000760 0000                      nop
000761 0000                      nop
000762 0000                      nop
000763 0000                      nop
000764 0000                      nop
000765 0000                      nop
000766 0000                      nop
000767 0000                      nop
000768 0000                      nop
000769 0000                      nop
00076a 0000                      nop
00076b 0000                      nop
00076c 0000                      nop
00076d 0000                      nop
00076e 0000                      nop
00076f 0000                      nop
000770 0000                      nop
000771 0000                      nop
000772 0000                      nop
000773 0000                      nop
000774 0000                      nop
000775 0000                      nop
000776 0000                      nop
000777 0000                      nop
000778 0000                      nop
000779 0000                      nop
00077a 0000                      nop
00077b 0000                      nop
00077c 0000                      nop
00077d 0000                      nop
00077e 0000                      nop
00077f 0000                      nop
000780 0000                      nop
000781 0000                      nop
000782 0000                      nop
000783 0000                      nop
000784 0000                      nop
000785 0000                      nop
000786 0000                      nop
000787 0000                      nop
000788 0000                      nop
000789 0000                      nop
00078a 0000                      nop
00078b 0000                      nop
00078c 0000                      nop
00078d 0000                      nop
00078e 0000                      nop
00078f 0000                      nop
000790 0000                      nop
000791 0000                      nop
000792 0000                      nop
000793 0000                      nop
000794 0000                      nop
000795 0000                      nop
000796 0000                      nop
000797 0000                      nop
000798 0000                      nop
000799 0000                      nop
00079a 0000                      nop
00079b 0000                      nop
00079c 0000                      nop
00079d 0000                      nop
00079e 0000                      nop
00079f 0000                      nop
0007a0 0000                      nop
0007a1 0000                      nop
0007a2 0000                      nop
0007a3 0000                      nop
0007a4 0000                      nop
0007a5 0000                      nop
0007a6 0000                      nop
0007a7 0000                      nop
0007a8 0000                      nop
0007a9 0000                      nop
0007aa 0000                      nop
0007ab 0000                      nop
0007ac 0000                      nop
0007ad 0000                      nop
0007ae 0000                      nop
0007af 0000                      nop
0007b0 0000                      nop
0007b1 0000                      nop
0007b2 0000                      nop
0007b3 0000                      nop
0007b4 0000                      nop
0007b5 0000                      nop
0007b6 0000                      nop
0007b7 0000                      nop
0007b8 0000                      nop
0007b9 0000                      nop
0007ba 0000                      nop
0007bb 0000                      nop
0007bc 0000                      nop
0007bd 0000                      nop
0007be 0000                      nop
0007bf 0000                      nop
0007c0 0000                      nop
0007c1 0000                      nop
0007c2 0000                      nop
0007c3 0000                      nop
0007c4 0000                      nop
0007c5 0000                      nop
0007c6 0000                      nop
0007c7 0000                      nop
0007c8 0000                      nop
0007c9 0000                      nop
0007ca 0000                      nop
0007cb 0000                      nop
0007cc 0000                      nop
0007cd 0000                      nop
0007ce 0000                      nop
0007cf 0000                      nop
0007d0 0000                      nop
0007d1 0000                      nop
0007d2 0000                      nop
0007d3 0000                      nop
0007d4 0000                      nop
0007d5 0000                      nop
0007d6 0000                      nop
0007d7 0000                      nop
0007d8 0000                      nop
0007d9 0000                      nop
0007da 0000                      nop
0007db 0000                      nop
0007dc 0000                      nop
0007dd 0000                      nop
0007de 0000                      nop
0007df 0000                      nop
0007e0 0000                      nop
0007e1 0000                      nop
0007e2 0000                      nop
0007e3 0000                      nop
0007e4 0000                      nop
0007e5 0000                      nop
0007e6 0000                      nop
0007e7 0000                      nop
0007e8 0000                      nop
0007e9 0000                      nop
0007ea 0000                      nop
0007eb 0000                      nop
0007ec 0000                      nop
0007ed 0000                      nop
0007ee 0000                      nop
0007ef 0000                      nop
0007f0 0000                      nop
0007f1 0000                      nop
0007f2 0000                      nop
0007f3 0000                      nop
0007f4 0000                      nop
0007f5 0000                      nop
0007f6 0000                      nop
0007f7 0000                      nop
0007f8 0000                      nop
0007f9 0000                      nop
0007fa 0000                      nop
0007fb 0000                      nop
0007fc 0000                      nop
0007fd 0000                      nop
0007fe 0000                      nop
0007ff 0000                      nop
000800 0000                      nop
000801 0000                      nop
000802 0000                      nop
000803 0000                      nop
000804 0000                      nop
000805 0000                      nop
000806 0000                      nop
000807 0000                      nop
000808 0000                      nop
000809 0000                      nop
00080a 0000                      nop
00080b 0000                      nop
00080c 0000                      nop
00080d 0000                      nop
00080e 0000                      nop
00080f 0000                      nop
000810 0000                      nop
000811 0000                      nop
000812 0000                      nop
000813 0000                      nop
000814 0000                      nop
000815 0000                      nop
000816 0000                      nop
000817 0000                      nop
000818 0000                      nop
000819 0000                      nop
00081a 0000                      nop
00081b 0000                      nop
00081c 0000                      nop
00081d 0000                      nop
00081e 0000                      nop
00081f 0000                      nop
000820 0000                      nop
000821 0000                      nop
000822 0000                      nop
000823 0000                      nop
000824 0000                      nop
000825 0000                      nop
000826 0000                      nop
000827 0000                      nop
000828 0000                      nop
000829 0000                      nop
00082a 0000                      nop
00082b 0000                      nop
00082c 0000                      nop
00082d 0000                      nop
00082e 0000                      nop
00082f 0000                      nop
000830 0000                      nop
000831 0000                      nop
000832 0000                      nop
000833 0000                      nop
000834 0000                      nop
000835 0000                      nop
000836 0000                      nop
000837 0000                      nop
000838 0000                      nop
000839 0000                      nop
00083a 0000                      nop
00083b 0000                      nop
00083c 0000                      nop
00083d 0000                      nop
00083e 0000                      nop
00083f 0000                      nop
000840 0000                      nop
000841 0000                      nop
000842 0000                      nop
000843 0000                      nop
000844 0000                      nop
000845 0000                      nop
000846 0000                      nop
000847 0000                      nop
000848 0000                      nop
000849 0000                      nop
00084a 0000                      nop
00084b 0000                      nop
00084c 0000                      nop
00084d 0000                      nop
00084e 0000                      nop
00084f 0000                      nop
000850 0000                      nop
000851 0000                      nop
000852 0000                      nop
000853 0000                      nop
000854 0000                      nop
000855 0000                      nop
000856 0000                      nop
000857 0000                      nop
000858 0000                      nop
000859 0000                      nop
00085a 0000                      nop
00085b 0000                      nop
00085c 0000                      nop
00085d 0000                      nop
00085e 0000                      nop
00085f 0000                      nop
000860 0000                      nop
000861 0000                      nop
000862 0000                      nop
000863 0000                      nop
000864 0000                      nop
000865 0000                      nop
000866 0000                      nop
000867 0000                      nop
000868 0000                      nop
000869 0000                      nop
00086a 0000                      nop
00086b 0000                      nop
00086c 0000                      nop
00086d 0000                      nop
00086e 0000                      nop
00086f 0000                      nop
000870 0000                      nop
000871 0000                      nop
000872 0000                      nop
000873 0000                      nop
000874 0000                      nop
000875 0000                      nop
000876 0000                      nop
000877 0000                      nop
000878 0000                      nop
000879 0000                      nop
00087a 0000                      nop
00087b 0000                      nop
00087c 0000                      nop
00087d 0000                      nop
00087e 0000                      nop
00087f 0000                      nop
000880 0000                      nop
000881 0000                      nop
000882 0000                      nop
000883 0000                      nop
000884 0000                      nop
000885 0000                      nop
000886 0000                      nop
000887 0000                      nop
000888 0000                      nop
000889 0000                      nop
00088a 0000                      nop
00088b 0000                      nop
00088c 0000                      nop
00088d 0000                      nop
00088e 0000                      nop
00088f 0000                      nop
000890 0000                      nop
000891 0000                      nop
000892 0000                      nop
000893 0000                      nop
000894 0000                      nop
000895 0000                      nop
000896 0000                      nop
000897 0000                      nop
000898 0000                      nop
000899 0000                      nop
00089a 0000                      nop
00089b 0000                      nop
00089c 0000                      nop
00089d 0000                      nop
00089e 0000                      nop
00089f 0000                      nop
0008a0 0000                      nop
0008a1 0000                      nop
0008a2 0000                      nop
0008a3 0000                      nop
0008a4 0000                      nop
0008a5 0000                      nop
0008a6 0000                      nop
0008a7 0000                      nop
0008a8 0000                      nop
0008a9 0000                      nop
0008aa 0000                      nop
0008ab 0000                      nop
0008ac 0000                      nop
0008ad 0000                      nop
0008ae 0000                      nop
0008af 0000                      nop
0008b0 0000                      nop
0008b1 0000                      nop
0008b2 0000                      nop
0008b3 0000                      nop
0008b4 0000                      nop
0008b5 0000                      nop
0008b6 0000                      nop
0008b7 0000                      nop
0008b8 0000                      nop
0008b9 0000                      nop
0008ba 0000                      nop
0008bb 0000                      nop
0008bc 0000                      nop
0008bd 0000                      nop
0008be 0000                      nop
0008bf 0000                      nop
0008c0 0000                      nop
0008c1 0000                      nop
0008c2 0000                      nop
0008c3 0000                      nop
0008c4 0000                      nop
0008c5 0000                      nop
0008c6 0000                      nop
0008c7 0000                      nop
0008c8 0000                      nop
0008c9 0000                      nop
0008ca 0000                      nop
0008cb 0000                      nop
0008cc 0000                      nop
0008cd 0000                      nop
0008ce 0000                      nop
0008cf 0000                      nop
0008d0 0000                      nop
0008d1 0000                      nop
0008d2 0000                      nop
0008d3 0000                      nop
0008d4 0000                      nop
0008d5 0000                      nop
0008d6 0000                      nop
0008d7 0000                      nop
0008d8 0000                      nop
0008d9 0000                      nop
0008da 0000                      nop
0008db 0000                      nop
0008dc 0000                      nop
0008dd 0000                      nop
0008de 0000                      nop
0008df 0000                      nop
0008e0 0000                      nop
0008e1 0000                      nop
0008e2 0000                      nop
0008e3 0000                      nop
0008e4 0000                      nop
0008e5 0000                      nop
0008e6 0000                      nop
0008e7 0000                      nop
0008e8 0000                      nop
0008e9 0000                      nop
0008ea 0000                      nop
0008eb 0000                      nop
0008ec 0000                      nop
0008ed 0000                      nop
0008ee 0000                      nop
0008ef 0000                      nop
0008f0 0000                      nop
0008f1 0000                      nop
0008f2 0000                      nop
0008f3 0000                      nop
0008f4 0000                      nop
0008f5 0000                      nop
0008f6 0000                      nop
0008f7 0000                      nop
0008f8 0000                      nop
0008f9 0000                      nop
0008fa 0000                      nop
0008fb 0000                      nop
0008fc 0000                      nop
0008fd 0000                      nop
0008fe 0000                      nop
0008ff 0000                      nop
000900 0000                      nop
000901 0000                      nop
000902 0000                      nop
000903 0000                      nop
000904 0000                      nop
000905 0000                      nop
000906 0000                      nop
000907 0000                      nop
000908 0000                      nop
000909 0000                      nop
00090a 0000                      nop
00090b 0000                      nop
00090c 0000                      nop
00090d 0000                      nop
00090e 0000                      nop
00090f 0000                      nop
000910 0000                      nop
000911 0000                      nop
000912 0000                      nop
000913 0000                      nop
000914 0000                      nop
000915 0000                      nop
000916 0000                      nop
000917 0000                      nop
000918 0000                      nop
000919 0000                      nop
00091a 0000                      nop
00091b 0000                      nop
00091c 0000                      nop
00091d 0000                      nop
00091e 0000                      nop
00091f 0000                      nop
000920 0000                      nop
000921 0000                      nop
000922 0000                      nop
000923 0000                      nop
000924 0000                      nop
000925 0000                      nop
000926 0000                      nop
000927 0000                      nop
000928 0000                      nop
000929 0000                      nop
00092a 0000                      nop
00092b 0000                      nop
00092c 0000                      nop
00092d 0000                      nop
00092e 0000                      nop
00092f 0000                      nop
000930 0000                      nop
000931 0000                      nop
000932 0000                      nop
000933 0000                      nop
000934 0000                      nop
000935 0000                      nop
000936 0000                      nop
000937 0000                      nop
000938 0000                      nop
000939 0000                      nop
00093a 0000                      nop
00093b 0000                      nop
00093c 0000                      nop
00093d 0000                      nop
00093e 0000                      nop
00093f 0000                      nop
000940 0000                      nop
000941 0000                      nop
000942 0000                      nop
000943 0000                      nop
000944 0000                      nop
000945 0000                      nop
000946 0000                      nop
000947 0000                      nop
000948 0000                      nop
000949 0000                      nop
00094a 0000                      nop
00094b 0000                      nop
00094c 0000                      nop
00094d 0000                      nop
00094e 0000                      nop
00094f 0000                      nop
000950 0000                      nop
000951 0000                      nop
000952 0000                      nop
000953 0000                      nop
000954 0000                      nop
000955 0000                      nop
000956 0000                      nop
000957 0000                      nop
000958 0000                      nop
000959 0000                      nop
00095a 0000                      nop
00095b 0000                      nop
00095c 0000                      nop
00095d 0000                      nop
00095e 0000                      nop
00095f 0000                      nop
000960 0000                      nop
000961 0000                      nop
000962 0000                      nop
000963 0000                      nop
000964 0000                      nop
000965 0000                      nop
000966 0000                      nop
000967 0000                      nop
000968 0000                      nop
000969 0000                      nop
00096a 0000                      nop
00096b 0000                      nop
00096c 0000                      nop
00096d 0000                      nop
00096e 0000                      nop
00096f 0000                      nop
000970 0000                      nop
000971 0000                      nop
000972 0000                      nop
000973 0000                      nop
000974 0000                      nop
000975 0000                      nop
000976 0000                      nop
000977 0000                      nop
000978 0000                      nop
000979 0000                      nop
00097a 0000                      nop
00097b 0000                      nop
00097c 0000                      nop
00097d 0000                      nop
00097e 0000                      nop
00097f 0000                      nop
000980 0000                      nop
000981 0000                      nop
000982 0000                      nop
000983 0000                      nop
000984 0000                      nop
000985 0000                      nop
000986 0000                      nop
000987 0000                      nop
000988 0000                      nop
000989 0000                      nop
00098a 0000                      nop
00098b 0000                      nop
00098c 0000                      nop
00098d 0000                      nop
00098e 0000                      nop
00098f 0000                      nop
000990 0000                      nop
000991 0000                      nop
000992 0000                      nop
000993 0000                      nop
000994 0000                      nop
000995 0000                      nop
000996 0000                      nop
000997 0000                      nop
000998 0000                      nop
000999 0000                      nop
00099a 0000                      nop
00099b 0000                      nop
00099c 0000                      nop
00099d 0000                      nop
00099e 0000                      nop
00099f 0000                      nop
0009a0 0000                      nop
0009a1 0000                      nop
0009a2 0000                      nop
0009a3 0000                      nop
0009a4 0000                      nop
0009a5 0000                      nop
0009a6 0000                      nop
0009a7 0000                      nop
0009a8 0000                      nop
0009a9 0000                      nop
0009aa 0000                      nop
0009ab 0000                      nop
0009ac 0000                      nop
0009ad 0000                      nop
0009ae 0000                      nop
0009af 0000                      nop
0009b0 0000                      nop
0009b1 0000                      nop
0009b2 0000                      nop
0009b3 0000                      nop
0009b4 0000                      nop
0009b5 0000                      nop
0009b6 0000                      nop
0009b7 0000                      nop
0009b8 0000                      nop
0009b9 0000                      nop
0009ba 0000                      nop
0009bb 0000                      nop
0009bc 0000                      nop
0009bd 0000                      nop
0009be 0000                      nop
0009bf 0000                      nop
0009c0 0000                      nop
0009c1 0000                      nop
0009c2 0000                      nop
0009c3 0000                      nop
0009c4 0000                      nop
0009c5 0000                      nop
0009c6 0000                      nop
0009c7 0000                      nop
0009c8 0000                      nop
0009c9 0000                      nop
0009ca 0000                      nop
0009cb 0000                      nop
0009cc 0000                      nop
0009cd 0000                      nop
0009ce 0000                      nop
0009cf 0000                      nop
0009d0 0000                      nop
0009d1 0000                      nop
0009d2 0000                      nop
0009d3 0000                      nop
0009d4 0000                      nop
0009d5 0000                      nop
0009d6 0000                      nop
0009d7 0000                      nop
0009d8 0000                      nop
0009d9 0000                      nop
0009da 0000                      nop
0009db 0000                      nop
0009dc 0000                      nop
0009dd 0000                      nop
0009de 0000                      nop
0009df 0000                      nop
0009e0 0000                      nop
0009e1 0000                      nop
0009e2 0000                      nop
0009e3 0000                      nop
0009e4 0000                      nop
0009e5 0000                      nop
0009e6 0000                      nop
0009e7 0000                      nop
0009e8 0000                      nop
0009e9 0000                      nop
0009ea 0000                      nop
0009eb 0000                      nop
0009ec 0000                      nop
0009ed 0000                      nop
0009ee 0000                      nop
0009ef 0000                      nop
0009f0 0000                      nop
0009f1 0000                      nop
0009f2 0000                      nop
0009f3 0000                      nop
0009f4 0000                      nop
0009f5 0000                      nop
0009f6 0000                      nop
0009f7 0000                      nop
0009f8 0000                      nop
0009f9 0000                      nop
0009fa 0000                      nop
0009fb 0000                      nop
0009fc 0000                      nop
0009fd 0000                      nop
0009fe 0000                      nop
0009ff 0000                      nop
000a00 0000                      nop
000a01 0000                      nop
000a02 0000                      nop
000a03 0000                      nop
000a04 0000                      nop
000a05 0000                      nop
000a06 0000                      nop
000a07 0000                      nop
000a08 0000                      nop
000a09 0000                      nop
000a0a 0000                      nop
000a0b 0000                      nop
000a0c 0000                      nop
000a0d 0000                      nop
000a0e 0000                      nop
000a0f 0000                      nop
000a10 0000                      nop
000a11 0000                      nop
000a12 0000                      nop
000a13 0000                      nop
000a14 0000                      nop
000a15 0000                      nop
000a16 0000                      nop
000a17 0000                      nop
000a18 0000                      nop
000a19 0000                      nop
000a1a 0000                      nop
000a1b 0000                      nop
000a1c 0000                      nop
000a1d 0000                      nop
000a1e 0000                      nop
000a1f 0000                      nop
000a20 0000                      nop
000a21 0000                      nop
000a22 0000                      nop
000a23 0000                      nop
000a24 0000                      nop
000a25 0000                      nop
000a26 0000                      nop
000a27 0000                      nop
000a28 0000                      nop
000a29 0000                      nop
000a2a 0000                      nop
000a2b 0000                      nop
000a2c 0000                      nop
000a2d 0000                      nop
000a2e 0000                      nop
000a2f 0000                      nop
000a30 0000                      nop
000a31 0000                      nop
000a32 0000                      nop
000a33 0000                      nop
000a34 0000                      nop
000a35 0000                      nop
000a36 0000                      nop
000a37 0000                      nop
000a38 0000                      nop
000a39 0000                      nop
000a3a 0000                      nop
000a3b 0000                      nop
000a3c 0000                      nop
000a3d 0000                      nop
000a3e 0000                      nop
000a3f 0000                      nop
000a40 0000                      nop
000a41 0000                      nop
000a42 0000                      nop
000a43 0000                      nop
000a44 0000                      nop
000a45 0000                      nop
000a46 0000                      nop
000a47 0000                      nop
000a48 0000                      nop
000a49 0000                      nop
000a4a 0000                      nop
000a4b 0000                      nop
000a4c 0000                      nop
000a4d 0000                      nop
000a4e 0000                      nop
000a4f 0000                      nop
000a50 0000                      nop
000a51 0000                      nop
000a52 0000                      nop
000a53 0000                      nop
000a54 0000                      nop
000a55 0000                      nop
000a56 0000                      nop
000a57 0000                      nop
000a58 0000                      nop
000a59 0000                      nop
000a5a 0000                      nop
000a5b 0000                      nop
000a5c 0000                      nop
000a5d 0000                      nop
000a5e 0000                      nop
000a5f 0000                      nop
000a60 0000                      nop
000a61 0000                      nop
000a62 0000                      nop
000a63 0000                      nop
000a64 0000                      nop
000a65 0000                      nop
000a66 0000                      nop
000a67 0000                      nop
000a68 0000                      nop
000a69 0000                      nop
000a6a 0000                      nop
000a6b 0000                      nop
000a6c 0000                      nop
000a6d 0000                      nop
000a6e 0000                      nop
000a6f 0000                      nop
000a70 0000                      nop
000a71 0000                      nop
000a72 0000                      nop
000a73 0000                      nop
000a74 0000                      nop
000a75 0000                      nop
000a76 0000                      nop
000a77 0000                      nop
000a78 0000                      nop
000a79 0000                      nop
000a7a 0000                      nop
000a7b 0000                      nop
000a7c 0000                      nop
000a7d 0000                      nop
000a7e 0000                      nop
000a7f 0000                      nop
000a80 0000                      nop
000a81 0000                      nop
000a82 0000                      nop
000a83 0000                      nop
000a84 0000                      nop
000a85 0000                      nop
000a86 0000                      nop
000a87 0000                      nop
000a88 0000                      nop
000a89 0000                      nop
000a8a 0000                      nop
000a8b 0000                      nop
000a8c 0000                      nop
000a8d 0000                      nop
000a8e 0000                      nop
000a8f 0000                      nop
000a90 0000                      nop
000a91 0000                      nop
000a92 0000                      nop
000a93 0000                      nop
000a94 0000                      nop
000a95 0000                      nop
000a96 0000                      nop
000a97 0000                      nop
000a98 0000                      nop
000a99 0000                      nop
000a9a 0000                      nop
000a9b 0000                      nop
000a9c 0000                      nop
000a9d 0000                      nop
000a9e 0000                      nop
000a9f 0000                      nop
000aa0 0000                      nop
000aa1 0000                      nop
000aa2 0000                      nop
000aa3 0000                      nop
000aa4 0000                      nop
000aa5 0000                      nop
000aa6 0000                      nop
000aa7 0000                      nop
000aa8 0000                      nop
000aa9 0000                      nop
000aaa 0000                      nop
000aab 0000                      nop
000aac 0000                      nop
000aad 0000                      nop
000aae 0000                      nop
000aaf 0000                      nop
000ab0 0000                      nop
000ab1 0000                      nop
000ab2 0000                      nop
000ab3 0000                      nop
000ab4 0000                      nop
000ab5 0000                      nop
000ab6 0000                      nop
000ab7 0000                      nop
000ab8 0000                      nop
000ab9 0000                      nop
000aba 0000                      nop
000abb 0000                      nop
000abc 0000                      nop
000abd 0000                      nop
000abe 0000                      nop
000abf 0000                      nop
000ac0 0000                      nop
000ac1 0000                      nop
000ac2 0000                      nop
000ac3 0000                      nop
000ac4 0000                      nop
000ac5 0000                      nop
000ac6 0000                      nop
000ac7 0000                      nop
000ac8 0000                      nop
000ac9 0000                      nop
000aca 0000                      nop
000acb 0000                      nop
000acc 0000                      nop
000acd 0000                      nop
000ace 0000                      nop
000acf 0000                      nop
000ad0 0000                      nop
000ad1 0000                      nop
000ad2 0000                      nop
000ad3 0000                      nop
000ad4 0000                      nop
000ad5 0000                      nop
000ad6 0000                      nop
000ad7 0000                      nop
000ad8 0000                      nop
000ad9 0000                      nop
000ada 0000                      nop
000adb 0000                      nop
000adc 0000                      nop
000add 0000                      nop
000ade 0000                      nop
000adf 0000                      nop
000ae0 0000                      nop
000ae1 0000                      nop
000ae2 0000                      nop
000ae3 0000                      nop
000ae4 0000                      nop
000ae5 0000                      nop
000ae6 0000                      nop
000ae7 0000                      nop
000ae8 0000                      nop
000ae9 0000                      nop
000aea 0000                      nop
000aeb 0000                      nop
000aec 0000                      nop
000aed 0000                      nop
000aee 0000                      nop
000aef 0000                      nop
000af0 0000                      nop
000af1 0000                      nop
000af2 0000                      nop
000af3 0000                      nop
000af4 0000                      nop
000af5 0000                      nop
000af6 0000                      nop
000af7 0000                      nop
000af8 0000                      nop
000af9 0000                      nop
000afa 0000                      nop
000afb 0000                      nop
000afc 0000                      nop
000afd 0000                      nop
000afe 0000                      nop
000aff 0000                      nop
000b00 0000                      nop
000b01 0000                      nop
000b02 0000                      nop
000b03 0000                      nop
000b04 0000                      nop
000b05 0000                      nop
000b06 0000                      nop
000b07 0000                      nop
000b08 0000                      nop
000b09 0000                      nop
000b0a 0000                      nop
000b0b 0000                      nop
000b0c 0000                      nop
000b0d 0000                      nop
000b0e 0000                      nop
000b0f 0000                      nop
000b10 0000                      nop
000b11 0000                      nop
000b12 0000                      nop
000b13 0000                      nop
000b14 0000                      nop
000b15 0000                      nop
000b16 0000                      nop
000b17 0000                      nop
000b18 0000                      nop
000b19 0000                      nop
000b1a 0000                      nop
000b1b 0000                      nop
000b1c 0000                      nop
000b1d 0000                      nop
000b1e 0000                      nop
000b1f 0000                      nop
000b20 0000                      nop
000b21 0000                      nop
000b22 0000                      nop
000b23 0000                      nop
000b24 0000                      nop
000b25 0000                      nop
000b26 0000                      nop
000b27 0000                      nop
000b28 0000                      nop
000b29 0000                      nop
000b2a 0000                      nop
000b2b 0000                      nop
000b2c 0000                      nop
000b2d 0000                      nop
000b2e 0000                      nop
000b2f 0000                      nop
000b30 0000                      nop
000b31 0000                      nop
000b32 0000                      nop
000b33 0000                      nop
000b34 0000                      nop
000b35 0000                      nop
000b36 0000                      nop
000b37 0000                      nop
000b38 0000                      nop
000b39 0000                      nop
000b3a 0000                      nop
000b3b 0000                      nop
000b3c 0000                      nop
000b3d 0000                      nop
000b3e 0000                      nop
000b3f 0000                      nop
000b40 0000                      nop
000b41 0000                      nop
000b42 0000                      nop
000b43 0000                      nop
000b44 0000                      nop
000b45 0000                      nop
000b46 0000                      nop
000b47 0000                      nop
000b48 0000                      nop
000b49 0000                      nop
000b4a 0000                      nop
000b4b 0000                      nop
000b4c 0000                      nop
000b4d 0000                      nop
000b4e 0000                      nop
000b4f 0000                      nop
000b50 0000                      nop
000b51 0000                      nop
000b52 0000                      nop
000b53 0000                      nop
000b54 0000                      nop
000b55 0000                      nop
000b56 0000                      nop
000b57 0000                      nop
000b58 0000                      nop
000b59 0000                      nop
000b5a 0000                      nop
000b5b 0000                      nop
000b5c 0000                      nop
000b5d 0000                      nop
000b5e 0000                      nop
000b5f 0000                      nop
000b60 0000                      nop
000b61 0000                      nop
000b62 0000                      nop
000b63 0000                      nop
000b64 0000                      nop
000b65 0000                      nop
000b66 0000                      nop
000b67 0000                      nop
000b68 0000                      nop
000b69 0000                      nop
000b6a 0000                      nop
000b6b 0000                      nop
000b6c 0000                      nop
000b6d 0000                      nop
000b6e 0000                      nop
000b6f 0000                      nop
000b70 0000                      nop
000b71 0000                      nop
000b72 0000                      nop
000b73 0000                      nop
000b74 0000                      nop
000b75 0000                      nop
000b76 0000                      nop
000b77 0000                      nop
000b78 0000                      nop
000b79 0000                      nop
000b7a 0000                      nop
000b7b 0000                      nop
000b7c 0000                      nop
000b7d 0000                      nop
000b7e 0000                      nop
000b7f 0000                      nop
000b80 0000                      nop
000b81 0000                      nop
000b82 0000                      nop
000b83 0000                      nop
000b84 0000                      nop
000b85 0000                      nop
000b86 0000                      nop
000b87 0000                      nop
000b88 0000                      nop
000b89 0000                      nop
000b8a 0000                      nop
000b8b 0000                      nop
000b8c 0000                      nop
000b8d 0000                      nop
000b8e 0000                      nop
000b8f 0000                      nop
000b90 0000                      nop
000b91 0000                      nop
000b92 0000                      nop
000b93 0000                      nop
000b94 0000                      nop
000b95 0000                      nop
000b96 0000                      nop
000b97 0000                      nop
000b98 0000                      nop
000b99 0000                      nop
000b9a 0000                      nop
000b9b 0000                      nop
000b9c 0000                      nop
000b9d 0000                      nop
000b9e 0000                      nop
000b9f 0000                      nop
000ba0 0000                      nop
000ba1 0000                      nop
000ba2 0000                      nop
000ba3 0000                      nop
000ba4 0000                      nop
000ba5 0000                      nop
000ba6 0000                      nop
000ba7 0000                      nop
000ba8 0000                      nop
000ba9 0000                      nop
000baa 0000                      nop
000bab 0000                      nop
000bac 0000                      nop
000bad 0000                      nop
000bae 0000                      nop
000baf 0000                      nop
000bb0 0000                      nop
000bb1 0000                      nop
000bb2 0000                      nop
000bb3 0000                      nop
000bb4 0000                      nop
000bb5 0000                      nop
000bb6 0000                      nop
000bb7 0000                      nop
000bb8 0000                      nop
000bb9 0000                      nop
000bba 0000                      nop
000bbb 0000                      nop
000bbc 0000                      nop
000bbd 0000                      nop
000bbe 0000                      nop
000bbf 0000                      nop
000bc0 0000                      nop
000bc1 0000                      nop
000bc2 0000                      nop
000bc3 0000                      nop
000bc4 0000                      nop
000bc5 0000                      nop
000bc6 0000                      nop
000bc7 0000                      nop
000bc8 0000                      nop
000bc9 0000                      nop
000bca 0000                      nop
000bcb 0000                      nop
000bcc 0000                      nop
000bcd 0000                      nop
000bce 0000                      nop
000bcf 0000                      nop
000bd0 0000                      nop
000bd1 0000                      nop
000bd2 0000                      nop
000bd3 0000                      nop
000bd4 0000                      nop
000bd5 0000                      nop
000bd6 0000                      nop
000bd7 0000                      nop
000bd8 0000                      nop
000bd9 0000                      nop
000bda 0000                      nop
000bdb 0000                      nop
000bdc 0000                      nop
000bdd 0000                      nop
000bde 0000                      nop
000bdf 0000                      nop
000be0 0000                      nop
000be1 0000                      nop
000be2 0000                      nop
000be3 0000                      nop
000be4 0000                      nop
000be5 0000                      nop
000be6 0000                      nop
000be7 0000                      nop
000be8 0000                      nop
000be9 0000                      nop
000bea 0000                      nop
000beb 0000                      nop
000bec 0000                      nop
000bed 0000                      nop
000bee 0000                      nop
000bef 0000                      nop
000bf0 0000                      nop
000bf1 0000                      nop
000bf2 0000                      nop
000bf3 0000                      nop
000bf4 0000                      nop
000bf5 0000                      nop
000bf6 0000                      nop
000bf7 0000                      nop
000bf8 0000                      nop
000bf9 0000                      nop
000bfa 0000                      nop
000bfb 0000                      nop
000bfc 0000                      nop
000bfd 0000                      nop
000bfe 0000                      nop
000bff 0000                      nop
000c00 0000                      nop
000c01 0000                      nop
000c02 0000                      nop
000c03 0000                      nop
000c04 0000                      nop
000c05 0000                      nop
000c06 0000                      nop
000c07 0000                      nop
000c08 0000                      nop
000c09 0000                      nop
000c0a 0000                      nop
000c0b 0000                      nop
000c0c 0000                      nop
000c0d 0000                      nop
000c0e 0000                      nop
000c0f 0000                      nop
000c10 0000                      nop
000c11 0000                      nop
000c12 0000                      nop
000c13 0000                      nop
000c14 0000                      nop
000c15 0000                      nop
000c16 0000                      nop
000c17 0000                      nop
000c18 0000                      nop
000c19 0000                      nop
000c1a 0000                      nop
000c1b 0000                      nop
000c1c 0000                      nop
000c1d 0000                      nop
000c1e 0000                      nop
000c1f 0000                      nop
000c20 0000                      nop
000c21 0000                      nop
000c22 0000                      nop
000c23 0000                      nop
000c24 0000                      nop
000c25 0000                      nop
000c26 0000                      nop
000c27 0000                      nop
000c28 0000                      nop
000c29 0000                      nop
000c2a 0000                      nop
000c2b 0000                      nop
000c2c 0000                      nop
000c2d 0000                      nop
000c2e 0000                      nop
000c2f 0000                      nop
000c30 0000                      nop
000c31 0000                      nop
000c32 0000                      nop
000c33 0000                      nop
000c34 0000                      nop
000c35 0000                      nop
000c36 0000                      nop
000c37 0000                      nop
000c38 0000                      nop
000c39 0000                      nop
000c3a 0000                      nop
000c3b 0000                      nop
000c3c 0000                      nop
000c3d 0000                      nop
000c3e 0000                      nop
000c3f 0000                      nop
000c40 0000                      nop
000c41 0000                      nop
000c42 0000                      nop
000c43 0000                      nop
000c44 0000                      nop
000c45 0000                      nop
000c46 0000                      nop
000c47 0000                      nop
000c48 0000                      nop
000c49 0000                      nop
000c4a 0000                      nop
000c4b 0000                      nop
000c4c 0000                      nop
000c4d 0000                      nop
000c4e 0000                      nop
000c4f 0000                      nop
000c50 0000                      nop
000c51 0000                      nop
000c52 0000                      nop
000c53 0000                      nop
000c54 0000                      nop
000c55 0000                      nop
000c56 0000                      nop
000c57 0000                      nop
000c58 0000                      nop
000c59 0000                      nop
000c5a 0000                      nop
000c5b 0000                      nop
000c5c 0000                      nop
000c5d 0000                      nop
000c5e 0000                      nop
000c5f 0000                      nop
000c60 0000                      nop
000c61 0000                      nop
000c62 0000                      nop
000c63 0000                      nop
000c64 0000                      nop
000c65 0000                      nop
000c66 0000                      nop
000c67 0000                      nop
000c68 0000                      nop
000c69 0000                      nop
000c6a 0000                      nop
000c6b 0000                      nop
000c6c 0000                      nop
000c6d 0000                      nop
000c6e 0000                      nop
000c6f 0000                      nop
000c70 0000                      nop
000c71 0000                      nop
000c72 0000                      nop
000c73 0000                      nop
000c74 0000                      nop
000c75 0000                      nop
000c76 0000                      nop
000c77 0000                      nop
000c78 0000                      nop
000c79 0000                      nop
000c7a 0000                      nop
000c7b 0000                      nop
000c7c 0000                      nop
000c7d 0000                      nop
000c7e 0000                      nop
000c7f 0000                      nop
000c80 0000                      nop
000c81 0000                      nop
000c82 0000                      nop
000c83 0000                      nop
000c84 0000                      nop
000c85 0000                      nop
000c86 0000                      nop
000c87 0000                      nop
000c88 0000                      nop
000c89 0000                      nop
000c8a 0000                      nop
000c8b 0000                      nop
000c8c 0000                      nop
000c8d 0000                      nop
000c8e 0000                      nop
000c8f 0000                      nop
000c90 0000                      nop
000c91 0000                      nop
000c92 0000                      nop
000c93 0000                      nop
000c94 0000                      nop
000c95 0000                      nop
000c96 0000                      nop
000c97 0000                      nop
000c98 0000                      nop
000c99 0000                      nop
000c9a 0000                      nop
000c9b 0000                      nop
000c9c 0000                      nop
000c9d 0000                      nop
000c9e 0000                      nop
000c9f 0000                      nop
000ca0 0000                      nop
000ca1 0000                      nop
000ca2 0000                      nop
000ca3 0000                      nop
000ca4 0000                      nop
000ca5 0000                      nop
000ca6 0000                      nop
000ca7 0000                      nop
000ca8 0000                      nop
000ca9 0000                      nop
000caa 0000                      nop
000cab 0000                      nop
000cac 0000                      nop
000cad 0000                      nop
000cae 0000                      nop
000caf 0000                      nop
000cb0 0000                      nop
000cb1 0000                      nop
000cb2 0000                      nop
000cb3 0000                      nop
000cb4 0000                      nop
000cb5 0000                      nop
000cb6 0000                      nop
000cb7 0000                      nop
000cb8 0000                      nop
000cb9 0000                      nop
000cba 0000                      nop
000cbb 0000                      nop
000cbc 0000                      nop
000cbd 0000                      nop
000cbe 0000                      nop
000cbf 0000                      nop
000cc0 0000                      nop
000cc1 0000                      nop
000cc2 0000                      nop
000cc3 0000                      nop
000cc4 0000                      nop
000cc5 0000                      nop
000cc6 0000                      nop
000cc7 0000                      nop
000cc8 0000                      nop
000cc9 0000                      nop
000cca 0000                      nop
000ccb 0000                      nop
000ccc 0000                      nop
000ccd 0000                      nop
000cce 0000                      nop
000ccf 0000                      nop
000cd0 0000                      nop
000cd1 0000                      nop
000cd2 0000                      nop
000cd3 0000                      nop
000cd4 0000                      nop
000cd5 0000                      nop
000cd6 0000                      nop
000cd7 0000                      nop
000cd8 0000                      nop
000cd9 0000                      nop
000cda 0000                      nop
000cdb 0000                      nop
000cdc 0000                      nop
000cdd 0000                      nop
000cde 0000                      nop
000cdf 0000                      nop
000ce0 0000                      nop
000ce1 0000                      nop
000ce2 0000                      nop
000ce3 0000                      nop
000ce4 0000                      nop
000ce5 0000                      nop
000ce6 0000                      nop
000ce7 0000                      nop
000ce8 0000                      nop
000ce9 0000                      nop
000cea 0000                      nop
000ceb 0000                      nop
000cec 0000                      nop
000ced 0000                      nop
000cee 0000                      nop
000cef 0000                      nop
000cf0 0000                      nop
000cf1 0000                      nop
000cf2 0000                      nop
000cf3 0000                      nop
000cf4 0000                      nop
000cf5 0000                      nop
000cf6 0000                      nop
000cf7 0000                      nop
000cf8 0000                      nop
000cf9 0000                      nop
000cfa 0000                      nop
000cfb 0000                      nop
000cfc 0000                      nop
000cfd 0000                      nop
000cfe 0000                      nop
000cff 0000                      nop
000d00 0000                      nop
000d01 0000                      nop
000d02 0000                      nop
000d03 0000                      nop
000d04 0000                      nop
000d05 0000                      nop
000d06 0000                      nop
000d07 0000                      nop
000d08 0000                      nop
000d09 0000                      nop
000d0a 0000                      nop
000d0b 0000                      nop
000d0c 0000                      nop
000d0d 0000                      nop
000d0e 0000                      nop
000d0f 0000                      nop
000d10 0000                      nop
000d11 0000                      nop
000d12 0000                      nop
000d13 0000                      nop
000d14 0000                      nop
000d15 0000                      nop
000d16 0000                      nop
000d17 0000                      nop
000d18 0000                      nop
000d19 0000                      nop
000d1a 0000                      nop
000d1b 0000                      nop
000d1c 0000                      nop
000d1d 0000                      nop
000d1e 0000                      nop
000d1f 0000                      nop
000d20 0000                      nop
000d21 0000                      nop
000d22 0000                      nop
000d23 0000                      nop
000d24 0000                      nop
000d25 0000                      nop
000d26 0000                      nop
000d27 0000                      nop
000d28 0000                      nop
000d29 0000                      nop
000d2a 0000                      nop
000d2b 0000                      nop
000d2c 0000                      nop
000d2d 0000                      nop
000d2e 0000                      nop
000d2f 0000                      nop
000d30 0000                      nop
000d31 0000                      nop
000d32 0000                      nop
000d33 0000                      nop
000d34 0000                      nop
000d35 0000                      nop
000d36 0000                      nop
000d37 0000                      nop
000d38 0000                      nop
000d39 0000                      nop
000d3a 0000                      nop
000d3b 0000                      nop
000d3c 0000                      nop
000d3d 0000                      nop
000d3e 0000                      nop
000d3f 0000                      nop
000d40 0000                      nop
000d41 0000                      nop
000d42 0000                      nop
000d43 0000                      nop
000d44 0000                      nop
000d45 0000                      nop
000d46 0000                      nop
000d47 0000                      nop
000d48 0000                      nop
000d49 0000                      nop
000d4a 0000                      nop
000d4b 0000                      nop
000d4c 0000                      nop
000d4d 0000                      nop
000d4e 0000                      nop
000d4f 0000                      nop
000d50 0000                      nop
000d51 0000                      nop
000d52 0000                      nop
000d53 0000                      nop
000d54 0000                      nop
000d55 0000                      nop
000d56 0000                      nop
000d57 0000                      nop
000d58 0000                      nop
000d59 0000                      nop
000d5a 0000                      nop
000d5b 0000                      nop
000d5c 0000                      nop
000d5d 0000                      nop
000d5e 0000                      nop
000d5f 0000                      nop
000d60 0000                      nop
000d61 0000                      nop
000d62 0000                      nop
000d63 0000                      nop
000d64 0000                      nop
000d65 0000                      nop
000d66 0000                      nop
000d67 0000                      nop
000d68 0000                      nop
000d69 0000                      nop
000d6a 0000                      nop
000d6b 0000                      nop
000d6c 0000                      nop
000d6d 0000                      nop
000d6e 0000                      nop
000d6f 0000                      nop
000d70 0000                      nop
000d71 0000                      nop
000d72 0000                      nop
000d73 0000                      nop
000d74 0000                      nop
000d75 0000                      nop
000d76 0000                      nop
000d77 0000                      nop
000d78 0000                      nop
000d79 0000                      nop
000d7a 0000                      nop
000d7b 0000                      nop
000d7c 0000                      nop
000d7d 0000                      nop
000d7e 0000                      nop
000d7f 0000                      nop
000d80 0000                      nop
000d81 0000                      nop
000d82 0000                      nop
000d83 0000                      nop
000d84 0000                      nop
000d85 0000                      nop
000d86 0000                      nop
000d87 0000                      nop
000d88 0000                      nop
000d89 0000                      nop
000d8a 0000                      nop
000d8b 0000                      nop
000d8c 0000                      nop
000d8d 0000                      nop
000d8e 0000                      nop
000d8f 0000                      nop
000d90 0000                      nop
000d91 0000                      nop
000d92 0000                      nop
000d93 0000                      nop
000d94 0000                      nop
000d95 0000                      nop
000d96 0000                      nop
000d97 0000                      nop
000d98 0000                      nop
000d99 0000                      nop
000d9a 0000                      nop
000d9b 0000                      nop
000d9c 0000                      nop
000d9d 0000                      nop
000d9e 0000                      nop
000d9f 0000                      nop
000da0 0000                      nop
000da1 0000                      nop
000da2 0000                      nop
000da3 0000                      nop
000da4 0000                      nop
000da5 0000                      nop
000da6 0000                      nop
000da7 0000                      nop
000da8 0000                      nop
000da9 0000                      nop
000daa 0000                      nop
000dab 0000                      nop
000dac 0000                      nop
000dad 0000                      nop
000dae 0000                      nop
000daf 0000                      nop
000db0 0000                      nop
000db1 0000                      nop
000db2 0000                      nop
000db3 0000                      nop
000db4 0000                      nop
000db5 0000                      nop
000db6 0000                      nop
000db7 0000                      nop
000db8 0000                      nop
000db9 0000                      nop
000dba 0000                      nop
000dbb 0000                      nop
000dbc 0000                      nop
000dbd 0000                      nop
000dbe 0000                      nop
000dbf 0000                      nop
000dc0 0000                      nop
000dc1 0000                      nop
000dc2 0000                      nop
000dc3 0000                      nop
000dc4 0000                      nop
000dc5 0000                      nop
000dc6 0000                      nop
000dc7 0000                      nop
000dc8 0000                      nop
000dc9 0000                      nop
000dca 0000                      nop
000dcb 0000                      nop
000dcc 0000                      nop
000dcd 0000                      nop
000dce 0000                      nop
000dcf 0000                      nop
000dd0 0000                      nop
000dd1 0000                      nop
000dd2 0000                      nop
000dd3 0000                      nop
000dd4 0000                      nop
000dd5 0000                      nop
000dd6 0000                      nop
000dd7 0000                      nop
000dd8 0000                      nop
000dd9 0000                      nop
000dda 0000                      nop
000ddb 0000                      nop
000ddc 0000                      nop
000ddd 0000                      nop
000dde 0000                      nop
000ddf 0000                      nop
000de0 0000                      nop
000de1 0000                      nop
000de2 0000                      nop
000de3 0000                      nop
000de4 0000                      nop
000de5 0000                      nop
000de6 0000                      nop
000de7 0000                      nop
000de8 0000                      nop
000de9 0000                      nop
000dea 0000                      nop
000deb 0000                      nop
000dec 0000                      nop
000ded 0000                      nop
000dee 0000                      nop
000def 0000                      nop
000df0 0000                      nop
000df1 0000                      nop
000df2 0000                      nop
000df3 0000                      nop
000df4 0000                      nop
000df5 0000                      nop
000df6 0000                      nop
000df7 0000                      nop
000df8 0000                      nop
000df9 0000                      nop
000dfa 0000                      nop
000dfb 0000                      nop
000dfc 0000                      nop
000dfd 0000                      nop
000dfe 0000                      nop
000dff 0000                      nop
000e00 0000                      nop
000e01 0000                      nop
000e02 0000                      nop
000e03 0000                      nop
000e04 0000                      nop
000e05 0000                      nop
000e06 0000                      nop
000e07 0000                      nop
000e08 0000                      nop
000e09 0000                      nop
000e0a 0000                      nop
000e0b 0000                      nop
000e0c 0000                      nop
000e0d 0000                      nop
000e0e 0000                      nop
000e0f 0000                      nop
000e10 0000                      nop
000e11 0000                      nop
000e12 0000                      nop
000e13 0000                      nop
000e14 0000                      nop
000e15 0000                      nop
000e16 0000                      nop
000e17 0000                      nop
000e18 0000                      nop
000e19 0000                      nop
000e1a 0000                      nop
000e1b 0000                      nop
000e1c 0000                      nop
000e1d 0000                      nop
000e1e 0000                      nop
000e1f 0000                      nop
000e20 0000                      nop
000e21 0000                      nop
000e22 0000                      nop
000e23 0000                      nop
000e24 0000                      nop
000e25 0000                      nop
000e26 0000                      nop
000e27 0000                      nop
000e28 0000                      nop
000e29 0000                      nop
000e2a 0000                      nop
000e2b 0000                      nop
000e2c 0000                      nop
000e2d 0000                      nop
000e2e 0000                      nop
000e2f 0000                      nop
000e30 0000                      nop
000e31 0000                      nop
000e32 0000                      nop
000e33 0000                      nop
000e34 0000                      nop
000e35 0000                      nop
000e36 0000                      nop
000e37 0000                      nop
000e38 0000                      nop
000e39 0000                      nop
000e3a 0000                      nop
000e3b 0000                      nop
000e3c 0000                      nop
000e3d 0000                      nop
000e3e 0000                      nop
000e3f 0000                      nop
000e40 0000                      nop
000e41 0000                      nop
000e42 0000                      nop
000e43 0000                      nop
000e44 0000                      nop
000e45 0000                      nop
000e46 0000                      nop
000e47 0000                      nop
000e48 0000                      nop
000e49 0000                      nop
000e4a 0000                      nop
000e4b 0000                      nop
000e4c 0000                      nop
000e4d 0000                      nop
000e4e 0000                      nop
000e4f 0000                      nop
000e50 0000                      nop
000e51 0000                      nop
000e52 0000                      nop
000e53 0000                      nop
000e54 0000                      nop
000e55 0000                      nop
000e56 0000                      nop
000e57 0000                      nop
000e58 0000                      nop
000e59 0000                      nop
000e5a 0000                      nop
000e5b 0000                      nop
000e5c 0000                      nop
000e5d 0000                      nop
000e5e 0000                      nop
000e5f 0000                      nop
000e60 0000                      nop
000e61 0000                      nop
000e62 0000                      nop
000e63 0000                      nop
000e64 0000                      nop
000e65 0000                      nop
000e66 0000                      nop
000e67 0000                      nop
000e68 0000                      nop
000e69 0000                      nop
000e6a 0000                      nop
000e6b 0000                      nop
000e6c 0000                      nop
000e6d 0000                      nop
000e6e 0000                      nop
000e6f 0000                      nop
000e70 0000                      nop
000e71 0000                      nop
000e72 0000                      nop
000e73 0000                      nop
000e74 0000                      nop
000e75 0000                      nop
000e76 0000                      nop
000e77 0000                      nop
000e78 0000                      nop
000e79 0000                      nop
000e7a 0000                      nop
000e7b 0000                      nop
000e7c 0000                      nop
000e7d 0000                      nop
000e7e 0000                      nop
000e7f 0000                      nop
000e80 0000                      nop
000e81 0000                      nop
000e82 0000                      nop
000e83 0000                      nop
000e84 0000                      nop
000e85 0000                      nop
000e86 0000                      nop
000e87 0000                      nop
000e88 0000                      nop
000e89 0000                      nop
000e8a 0000                      nop
000e8b 0000                      nop
000e8c 0000                      nop
000e8d 0000                      nop
000e8e 0000                      nop
000e8f 0000                      nop
000e90 0000                      nop
000e91 0000                      nop
000e92 0000                      nop
000e93 0000                      nop
000e94 0000                      nop
000e95 0000                      nop
000e96 0000                      nop
000e97 0000                      nop
000e98 0000                      nop
000e99 0000                      nop
000e9a 0000                      nop
000e9b 0000                      nop
000e9c 0000                      nop
000e9d 0000                      nop
000e9e 0000                      nop
000e9f 0000                      nop
000ea0 0000                      nop
000ea1 0000                      nop
000ea2 0000                      nop
000ea3 0000                      nop
000ea4 0000                      nop
000ea5 0000                      nop
000ea6 0000                      nop
000ea7 0000                      nop
000ea8 0000                      nop
000ea9 0000                      nop
000eaa 0000                      nop
000eab 0000                      nop
000eac 0000                      nop
000ead 0000                      nop
000eae 0000                      nop
000eaf 0000                      nop
000eb0 0000                      nop
000eb1 0000                      nop
000eb2 0000                      nop
000eb3 0000                      nop
000eb4 0000                      nop
000eb5 0000                      nop
000eb6 0000                      nop
000eb7 0000                      nop
000eb8 0000                      nop
000eb9 0000                      nop
000eba 0000                      nop


RESOURCE USE INFORMATION
------------------------

Notice:
The register and instruction counts are symbol table hit counts,
and hence implicitly used resources are not counted, eg, the
'lpm' instruction without operands implicitly uses r0 and z,
none of which are counted.

x,y,z are separate entities in the symbol table and are
counted separately from r26..r31 here.

.dseg memory usage only counts static data declared with .byte

"ATmega328P" register use summary:
x  :   0 y  :   0 z  :  16 r0 :  36 r1 :   4 r2 :   2 r3 :   4 r4 :   4 
r5 :   4 r6 :   0 r7 :   0 r8 :   0 r9 :   0 r10:   0 r11:   0 r12:   0 
r13:   0 r14:   0 r15:   0 r16: 465 r17:  77 r18:  33 r19:  24 r20:  15 
r21:  27 r22:  26 r23:  30 r24:  32 r25:  30 r26:  48 r27:  21 r28:  19 
r29:  24 r30:  28 r31:  30 
Registers used: 23 out of 35 (65.7%)

"ATmega328P" instruction use summary:
.lds  :   0 .sts  :   0 adc   :  25 add   :  20 adiw  :   6 and   :   4 
andi  :  29 asr   :   0 bclr  :   0 bld   :   0 brbc  :   0 brbs  :   0 
brcc  :   6 brcs  :   0 break :   0 breq  :  14 brge  :   2 brhc  :   0 
brhs  :   0 brid  :   0 brie  :   0 brlo  :  12 brlt  :   0 brmi  :   0 
brne  :  49 brpl  :   0 brsh  :   0 brtc  :   0 brts  :   0 brvc  :   0 
brvs  :   0 bset  :   0 bst   :   0 call  :  46 cbi   :  10 cbr   :   5 
clc   :   0 clh   :   0 cli   :   3 cln   :   0 clr   :  72 cls   :   0 
clt   :   0 clv   :   0 clz   :   0 com   :   6 cp    :   4 cpc   :   3 
cpi   :  51 cpse  :   0 dec   :  24 eor   :   0 fmul  :   0 fmuls :   0 
fmulsu:   0 icall :   0 ijmp  :   0 in    :  15 inc   :  14 jmp   :  26 
ld    :  13 ldd   :   0 ldi   : 168 lds   :  75 lpm   :  18 lsl   :   9 
lsr   :   0 mov   :  41 movw  :   0 mul   :   4 muls  :   0 mulsu :   0 
neg   :   0 nop   :2050 or    :   0 ori   :   1 out   :  93 pop   :  25 
push  :  25 rcall : 233 ret   :  67 reti  :   4 rjmp  :  42 rol   :  18 
ror   :   8 sbc   :   3 sbci  :   0 sbi   :  18 sbic  :  14 sbis  :   3 
sbiw  :   0 sbr   :   2 sbrc  :   0 sbrs  :   6 sec   :   0 seh   :   0 
sei   :   1 sen   :   0 ser   :   2 ses   :   0 set   :   0 sev   :   0 
sez   :   0 sleep :   0 spm   :   0 st    :   3 std   :   0 sts   :  65 
sub   :   3 subi  :  20 swap  :   8 tst   :   0 wdr   :  19 
Instructions used: 55 out of 113 (48.7%)

"ATmega328P" memory use summary [bytes]:
Segment   Begin    End      Code   Data   Used    Size   Use%
---------------------------------------------------------------
[.cseg] 0x000000 0x001d78   7414    130   7544   32768  23.0%
[.dseg] 0x000100 0x000100      0      0      0    2048   0.0%
[.eseg] 0x000000 0x000002      0      2      2    1024   0.2%

Assembly complete, 0 errors, 0 warnings
